(dp0
S'METTS MARK'
p1
(dp2
S'to_messages'
p3
I807
sS'deferral_payments'
p4
S'NaN'
p5
sS'bonus'
p6
I600000
sS'total_stock_value'
p7
I585062
sS'expenses'
p8
I94299
sS'from_poi_to_this_person'
p9
I38
sS'from_this_person_to_poi'
p10
I1
sS'poi'
p11
I00
sS'total_compensation'
p12
F1646889.0
sS'deferred_income'
p13
g5
sS'restricted_stock'
p14
I585062
sS'long_term_incentive'
p15
g5
sS'salary'
p16
I365788
sS'total_payments'
p17
I1061827
sS'loan_advances'
p18
g5
sS'email_address'
p19
S'mark.metts@enron.com'
p20
sS'restricted_stock_deferred'
p21
g5
sS'shared_receipt_with_poi'
p22
I702
sS'exercised_stock_options'
p23
g5
sS'from_messages'
p24
I29
sS'other'
p25
I1740
sS'director_fees'
p26
g5
ssS'BAXTER JOHN C'
p27
(dp28
g3
g5
sg4
I1295738
sg6
I1200000
sg7
I10623258
sg8
I11200
sg9
g5
sg10
g5
sg11
I00
sg12
F16257601.0
sg13
I-1386055
sg14
I3942714
sg15
I1586055
sg16
I267102
sg17
I5634343
sg18
g5
sg19
g5
sg21
g5
sg22
g5
sg23
I6680544
sg24
g5
sg25
I2660303
sg26
g5
ssS'ELLIOTT STEVEN'
p29
(dp30
g3
g5
sg4
g5
sg6
I350000
sg7
I6678735
sg8
I78552
sg9
g5
sg10
g5
sg11
I00
sg12
F6890460.0
sg13
I-400729
sg14
I1788391
sg15
g5
sg16
I170941
sg17
I211725
sg18
g5
sg19
S'steven.elliott@enron.com'
p31
sg21
g5
sg22
g5
sg23
I4890344
sg24
g5
sg25
I12961
sg26
g5
ssS'CORDES WILLIAM R'
p32
(dp33
g3
I764
sg4
g5
sg6
g5
sg7
I1038185
sg8
g5
sg9
I10
sg10
I0
sg11
I00
sg12
S'0'
p34
sg13
g5
sg14
I386335
sg15
g5
sg16
g5
sg17
g5
sg18
g5
sg19
S'bill.cordes@enron.com'
p35
sg21
g5
sg22
I58
sg23
I651850
sg24
I12
sg25
g5
sg26
g5
ssS'HANNON KEVIN P'
p36
(dp37
g3
I1045
sg4
g5
sg6
I1500000
sg7
I6391065
sg8
I34039
sg9
I32
sg10
I21
sg11
I01
sg12
F6679747.0
sg13
I-3117011
sg14
I853064
sg15
I1617011
sg16
I243293
sg17
I288682
sg18
g5
sg19
S'kevin.hannon@enron.com'
p38
sg21
g5
sg22
I1035
sg23
I5538001
sg24
I32
sg25
I11350
sg26
g5
ssS'MORDAUNT KRISTINA M'
p39
(dp40
g3
g5
sg4
g5
sg6
I325000
sg7
I208510
sg8
I35018
sg9
g5
sg10
g5
sg11
I00
sg12
F837032.0
sg13
g5
sg14
I208510
sg15
g5
sg16
I267093
sg17
I628522
sg18
g5
sg19
S'kristina.mordaunt@enron.com'
p41
sg21
g5
sg22
g5
sg23
g5
sg24
g5
sg25
I1411
sg26
g5
ssS'MEYER ROCKFORD G'
p42
(dp43
g3
I232
sg4
I1848227
sg6
g5
sg7
I955873
sg8
g5
sg9
I0
sg10
I0
sg11
I00
sg12
F2804100.0
sg13
g5
sg14
I462384
sg15
g5
sg16
g5
sg17
I1848227
sg18
g5
sg19
S'rockford.meyer@enron.com'
p44
sg21
g5
sg22
I22
sg23
I493489
sg24
I28
sg25
g5
sg26
g5
ssS'MCMAHON JEFFREY'
p45
(dp46
g3
I2355
sg4
g5
sg6
I2600000
sg7
I1662855
sg8
I137108
sg9
I58
sg10
I26
sg11
I00
sg12
F5762626.0
sg13
g5
sg14
I558801
sg15
I694862
sg16
I370448
sg17
I4099771
sg18
g5
sg19
S'jeffrey.mcmahon@enron.com'
p47
sg21
g5
sg22
I2228
sg23
I1104054
sg24
I48
sg25
I297353
sg26
g5
ssS'HORTON STANLEY C'
p48
(dp49
g3
I2350
sg4
I3131860
sg6
g5
sg7
I7256648
sg8
g5
sg9
I44
sg10
I15
sg11
I00
sg12
F10388508.0
sg13
g5
sg14
I2046079
sg15
g5
sg16
g5
sg17
I3131860
sg18
g5
sg19
S'stanley.horton@enron.com'
p50
sg21
g5
sg22
I1074
sg23
I5210569
sg24
I1073
sg25
g5
sg26
g5
ssS'PIPER GREGORY F'
p51
(dp52
g3
I1238
sg4
I1130036
sg6
I400000
sg7
I880290
sg8
I43057
sg9
I61
sg10
I48
sg11
I00
sg12
F2617919.0
sg13
I-33333
sg14
I409554
sg15
g5
sg16
I197091
sg17
I1737629
sg18
g5
sg19
S'greg.piper@enron.com'
p53
sg21
I-409554
sg22
I742
sg23
I880290
sg24
I222
sg25
I778
sg26
g5
ssS'HUMPHREY GENE E'
p54
(dp55
g3
I128
sg4
I2964506
sg6
g5
sg7
I2282768
sg8
I4994
sg9
I10
sg10
I17
sg11
I00
sg12
F5382992.0
sg13
g5
sg14
g5
sg15
g5
sg16
I130724
sg17
I3100224
sg18
g5
sg19
S'gene.humphrey@enron.com'
p56
sg21
g5
sg22
I119
sg23
I2282768
sg24
I17
sg25
g5
sg26
g5
ssS'UMANOFF ADAM S'
p57
(dp58
g3
I111
sg4
g5
sg6
I788750
sg7
g5
sg8
I53122
sg9
I12
sg10
I0
sg11
I00
sg12
g34
sg13
g5
sg14
g5
sg15
g5
sg16
I288589
sg17
I1130461
sg18
g5
sg19
S'adam.umanoff@enron.com'
p59
sg21
g5
sg22
I41
sg23
g5
sg24
I18
sg25
g5
sg26
g5
ssS'BLACHMAN JEREMY M'
p60
(dp61
g3
I2475
sg4
g5
sg6
I850000
sg7
I954354
sg8
I84208
sg9
I25
sg10
I2
sg11
I00
sg12
F2969189.0
sg13
g5
sg14
I189041
sg15
I831809
sg16
I248546
sg17
I2014835
sg18
g5
sg19
S'jeremy.blachman@enron.com'
p62
sg21
g5
sg22
I2326
sg23
I765313
sg24
I14
sg25
I272
sg26
g5
ssS'SUNDE MARTIN'
p63
(dp64
g3
I2647
sg4
g5
sg6
I700000
sg7
I698920
sg8
g5
sg9
I37
sg10
I13
sg11
I00
sg12
F2243979.0
sg13
g5
sg14
I698920
sg15
I476451
sg16
I257486
sg17
I1545059
sg18
g5
sg19
S'marty.sunde@enron.com'
p65
sg21
g5
sg22
I2565
sg23
g5
sg24
I38
sg25
I111122
sg26
g5
ssS'GIBBS DANA R'
p66
(dp67
g3
I169
sg4
I504610
sg6
g5
sg7
I2218275
sg8
g5
sg9
I0
sg10
I0
sg11
I00
sg12
F3184797.0
sg13
g5
sg14
g5
sg15
I461912
sg16
g5
sg17
I966522
sg18
g5
sg19
S'dana.gibbs@enron.com'
p68
sg21
g5
sg22
I23
sg23
I2218275
sg24
I12
sg25
g5
sg26
g5
ssS'LOWRY CHARLES P'
p69
(dp70
g3
g5
sg4
g5
sg6
g5
sg7
I372205
sg8
g5
sg9
g5
sg10
g5
sg11
I00
sg12
g34
sg13
g5
sg14
I153686
sg15
g5
sg16
g5
sg17
g5
sg18
g5
sg19
g5
sg21
I-153686
sg22
g5
sg23
I372205
sg24
g5
sg25
g5
sg26
g5
ssS'COLWELL WESLEY'
p71
(dp72
g3
I1758
sg4
I27610
sg6
I1200000
sg7
I698242
sg8
I16514
sg9
I240
sg10
I11
sg11
I01
sg12
F2188586.0
sg13
I-144062
sg14
I698242
sg15
g5
sg16
I288542
sg17
I1490344
sg18
g5
sg19
S'wes.colwell@enron.com'
p73
sg21
g5
sg22
I1132
sg23
g5
sg24
I40
sg25
I101740
sg26
g5
ssS'MULLER MARK S'
p74
(dp75
g3
I136
sg4
I842924
sg6
I1100000
sg7
I1416848
sg8
g5
sg9
I12
sg10
I0
sg11
I00
sg12
F4618918.0
sg13
I-719000
sg14
I360528
sg15
I1725545
sg16
I251654
sg17
I3202070
sg18
g5
sg19
S's..muller@enron.com'
p76
sg21
g5
sg22
I114
sg23
I1056320
sg24
I16
sg25
I947
sg26
g5
ssS'JACKSON CHARLENE R'
p77
(dp78
g3
I258
sg4
g5
sg6
I250000
sg7
I725735
sg8
I10181
sg9
I25
sg10
I19
sg11
I00
sg12
F1276909.0
sg13
g5
sg14
I540672
sg15
g5
sg16
I288558
sg17
I551174
sg18
g5
sg19
S'charlene.jackson@enron.com'
p79
sg21
g5
sg22
I117
sg23
I185063
sg24
I56
sg25
I2435
sg26
g5
ssS'WESTFAHL RICHARD K'
p80
(dp81
g3
g5
sg4
g5
sg6
g5
sg7
I384930
sg8
I51870
sg9
g5
sg10
g5
sg11
I00
sg12
F1147065.0
sg13
I-10800
sg14
I384930
sg15
I256191
sg16
I63744
sg17
I762135
sg18
g5
sg19
S'dick.westfahl@enron.com'
p82
sg21
g5
sg22
g5
sg23
g5
sg24
g5
sg25
I401130
sg26
g5
ssS'WALTERS GARETH W'
p83
(dp84
g3
g5
sg4
I53625
sg6
g5
sg7
I1030329
sg8
I33785
sg9
g5
sg10
g5
sg11
I00
sg12
F1117739.0
sg13
g5
sg14
g5
sg15
g5
sg16
g5
sg17
I87410
sg18
g5
sg19
g5
sg21
g5
sg22
g5
sg23
I1030329
sg24
g5
sg25
g5
sg26
g5
ssS'WALLS JR ROBERT H'
p85
(dp86
g3
I671
sg4
g5
sg6
I850000
sg7
I5898997
sg8
I50936
sg9
I17
sg10
I0
sg11
I00
sg12
F7697777.0
sg13
g5
sg14
I1552453
sg15
I540751
sg16
I357091
sg17
I1798780
sg18
g5
sg19
S'rob.walls@enron.com'
p87
sg21
g5
sg22
I215
sg23
I4346544
sg24
I146
sg25
I2
sg26
g5
ssS'KITCHEN LOUISE'
p88
(dp89
g3
I8305
sg4
g5
sg6
I3100000
sg7
I547143
sg8
I5774
sg9
I251
sg10
I194
sg11
I00
sg12
F4018284.0
sg13
g5
sg14
I466101
sg15
g5
sg16
I271442
sg17
I3471141
sg18
g5
sg19
S'louise.kitchen@enron.com'
p90
sg21
g5
sg22
I3669
sg23
I81042
sg24
I1728
sg25
I93925
sg26
g5
ssS'CHAN RONNIE'
p91
(dp92
g3
g5
sg4
g5
sg6
g5
sg7
g5
sg8
g5
sg9
g5
sg10
g5
sg11
I00
sg12
g34
sg13
I-98784
sg14
I32460
sg15
g5
sg16
g5
sg17
g5
sg18
g5
sg19
g5
sg21
I-32460
sg22
g5
sg23
g5
sg24
g5
sg25
g5
sg26
I98784
ssS'BELFER ROBERT'
p93
(dp94
g3
g5
sg4
I-102500
sg6
g5
sg7
I-44093
sg8
g5
sg9
g5
sg10
g5
sg11
I00
sg12
F58407.0
sg13
g5
sg14
g5
sg15
g5
sg16
g5
sg17
I102500
sg18
g5
sg19
g5
sg21
I44093
sg22
g5
sg23
I3285
sg24
g5
sg25
g5
sg26
I3285
ssS'SHANKMAN JEFFREY A'
p95
(dp96
g3
I3221
sg4
g5
sg6
I2000000
sg7
I2072035
sg8
I178979
sg9
I94
sg10
I83
sg11
I00
sg12
F5110737.0
sg13
g5
sg14
I630137
sg15
I554422
sg16
I304110
sg17
I3038702
sg18
g5
sg19
S'jeffrey.shankman@enron.com'
p97
sg21
g5
sg22
I1730
sg23
I1441898
sg24
I2681
sg25
I1191
sg26
g5
ssS'WODRASKA JOHN'
p98
(dp99
g3
g5
sg4
g5
sg6
g5
sg7
g5
sg8
g5
sg9
g5
sg10
g5
sg11
I00
sg12
g34
sg13
g5
sg14
g5
sg15
g5
sg16
g5
sg17
I189583
sg18
g5
sg19
S'john.wodraska@enron.com'
p100
sg21
g5
sg22
g5
sg23
g5
sg24
g5
sg25
I189583
sg26
g5
ssS'BERGSIEKER RICHARD P'
p101
(dp102
g3
I383
sg4
g5
sg6
I250000
sg7
I659249
sg8
I59175
sg9
I4
sg10
I0
sg11
I00
sg12
F1278099.0
sg13
I-485813
sg14
I659249
sg15
I180250
sg16
I187922
sg17
I618850
sg18
g5
sg19
S'rick.bergsieker@enron.com'
p103
sg21
g5
sg22
I233
sg23
g5
sg24
I59
sg25
I427316
sg26
g5
ssS'URQUHART JOHN A'
p104
(dp105
g3
g5
sg4
g5
sg6
g5
sg7
g5
sg8
I228656
sg9
g5
sg10
g5
sg11
I00
sg12
g34
sg13
I-36666
sg14
g5
sg15
g5
sg16
g5
sg17
I228656
sg18
g5
sg19
g5
sg21
g5
sg22
g5
sg23
g5
sg24
g5
sg25
g5
sg26
I36666
ssS'BIBI PHILIPPE A'
p106
(dp107
g3
I1607
sg4
g5
sg6
I1000000
sg7
I1843816
sg8
I38559
sg9
I23
sg10
I8
sg11
I00
sg12
F3891409.0
sg13
g5
sg14
I378082
sg15
I369721
sg16
I213625
sg17
I2047593
sg18
g5
sg19
S'philippe.bibi@enron.com'
p108
sg21
g5
sg22
I1336
sg23
I1465734
sg24
I40
sg25
I425688
sg26
g5
ssS'RIEKER PAULA H'
p109
(dp110
g3
I1328
sg4
I214678
sg6
I700000
sg7
I1918887
sg8
I33271
sg9
I35
sg10
I48
sg11
I01
sg12
F3017987.0
sg13
I-100000
sg14
I283649
sg15
g5
sg16
I249201
sg17
I1099100
sg18
g5
sg19
S'paula.rieker@enron.com'
p111
sg21
g5
sg22
I1258
sg23
I1635238
sg24
I82
sg25
I1950
sg26
g5
ssS'BECK SALLY W'
p112
(dp113
g3
I7315
sg4
g5
sg6
I700000
sg7
I126027
sg8
I37172
sg9
I144
sg10
I386
sg11
I00
sg12
F1095095.0
sg13
g5
sg14
I126027
sg15
g5
sg16
I231330
sg17
I969068
sg18
g5
sg19
S'sally.beck@enron.com'
p114
sg21
g5
sg22
I2639
sg23
g5
sg24
I4343
sg25
I566
sg26
g5
ssS'HAUG DAVID L'
p115
(dp116
g3
I573
sg4
g5
sg6
g5
sg7
I2217299
sg8
I475
sg9
I4
sg10
I7
sg11
I00
sg12
F2217774.0
sg13
g5
sg14
I2217299
sg15
g5
sg16
g5
sg17
I475
sg18
g5
sg19
S'david.haug@enron.com'
p117
sg21
g5
sg22
I471
sg23
g5
sg24
I19
sg25
g5
sg26
g5
ssS'ECHOLS JOHN B'
p118
(dp119
g3
g5
sg4
g5
sg6
I200000
sg7
I1008941
sg8
I21530
sg9
g5
sg10
g5
sg11
I00
sg12
F3701265.0
sg13
g5
sg14
I407503
sg15
I2234774
sg16
I182245
sg17
I2692324
sg18
g5
sg19
S'john.echols@enron.com'
p120
sg21
g5
sg22
g5
sg23
I601438
sg24
g5
sg25
I53775
sg26
g5
ssS'MENDELSOHN JOHN'
p121
(dp122
g3
g5
sg4
g5
sg6
g5
sg7
g5
sg8
I148
sg9
g5
sg10
g5
sg11
I00
sg12
g34
sg13
I-103750
sg14
g5
sg15
g5
sg16
g5
sg17
I148
sg18
g5
sg19
g5
sg21
g5
sg22
g5
sg23
g5
sg24
g5
sg25
g5
sg26
I103750
ssS'HICKERSON GARY J'
p123
(dp124
g3
I1320
sg4
g5
sg6
I1700000
sg7
I441096
sg8
I98849
sg9
I40
sg10
I1
sg11
I00
sg12
F2522892.0
sg13
g5
sg14
I441096
sg15
I69223
sg16
I211788
sg17
I2081796
sg18
g5
sg19
S'gary.hickerson@enron.com'
p125
sg21
g5
sg22
I900
sg23
g5
sg24
I27
sg25
I1936
sg26
g5
ssS'CLINE KENNETH W'
p126
(dp127
g3
g5
sg4
g5
sg6
g5
sg7
I189518
sg8
g5
sg9
g5
sg10
g5
sg11
I00
sg12
g34
sg13
g5
sg14
I662086
sg15
g5
sg16
g5
sg17
g5
sg18
g5
sg19
g5
sg21
I-472568
sg22
g5
sg23
g5
sg24
g5
sg25
g5
sg26
g5
ssS'LEWIS RICHARD'
p128
(dp129
g3
I952
sg4
g5
sg6
g5
sg7
I850477
sg8
g5
sg9
I10
sg10
I0
sg11
I00
sg12
g34
sg13
g5
sg14
g5
sg15
g5
sg16
g5
sg17
g5
sg18
g5
sg19
S'richard.lewis@enron.com'
p130
sg21
g5
sg22
I739
sg23
I850477
sg24
I26
sg25
g5
sg26
g5
ssS'HAYES ROBERT E'
p131
(dp132
g3
I504
sg4
I7961
sg6
g5
sg7
I151418
sg8
g5
sg9
I16
sg10
I0
sg11
I00
sg12
F159379.0
sg13
g5
sg14
I151418
sg15
g5
sg16
g5
sg17
I7961
sg18
g5
sg19
S'robert.hayes@enron.com'
p133
sg21
g5
sg22
I50
sg23
g5
sg24
I12
sg25
g5
sg26
g5
ssS'MCCARTY DANNY J'
p134
(dp135
g3
I1433
sg4
g5
sg6
g5
sg7
I758931
sg8
g5
sg9
I25
sg10
I2
sg11
I00
sg12
g34
sg13
g5
sg14
I94556
sg15
g5
sg16
g5
sg17
g5
sg18
g5
sg19
S'danny.mccarty@enron.com'
p136
sg21
g5
sg22
I508
sg23
I664375
sg24
I215
sg25
g5
sg26
g5
ssS'KOPPER MICHAEL J'
p137
(dp138
g3
g5
sg4
g5
sg6
I800000
sg7
I985032
sg8
I118134
sg9
g5
sg10
g5
sg11
I01
sg12
F3637644.0
sg13
g5
sg14
I985032
sg15
I602671
sg16
I224305
sg17
I2652612
sg18
g5
sg19
S'michael.kopper@enron.com'
p139
sg21
g5
sg22
g5
sg23
g5
sg24
g5
sg25
I907502
sg26
g5
ssS'LEFF DANIEL P'
p140
(dp141
g3
I2822
sg4
g5
sg6
I1000000
sg7
I360528
sg8
g5
sg9
I67
sg10
I14
sg11
I00
sg12
F3024756.0
sg13
g5
sg14
I360528
sg15
I1387399
sg16
I273746
sg17
I2664228
sg18
g5
sg19
S'dan.leff@enron.com'
p142
sg21
g5
sg22
I2672
sg23
g5
sg24
I63
sg25
I3083
sg26
g5
ssS'LAVORATO JOHN J'
p143
(dp144
g3
I7259
sg4
g5
sg6
I8000000
sg7
I5167144
sg8
I49537
sg9
I528
sg10
I411
sg11
I00
sg12
F15592901.0
sg13
g5
sg14
I1008149
sg15
I2035380
sg16
I339288
sg17
I10425757
sg18
g5
sg19
S'john.lavorato@enron.com'
p145
sg21
g5
sg22
I3962
sg23
I4158995
sg24
I2585
sg25
I1552
sg26
g5
ssS'BERBERIAN DAVID'
p146
(dp147
g3
g5
sg4
g5
sg6
g5
sg7
I2493616
sg8
I11892
sg9
g5
sg10
g5
sg11
I00
sg12
F2722090.0
sg13
g5
sg14
I869220
sg15
g5
sg16
I216582
sg17
I228474
sg18
g5
sg19
S'david.berberian@enron.com'
p148
sg21
g5
sg22
g5
sg23
I1624396
sg24
g5
sg25
g5
sg26
g5
ssS'DETMERING TIMOTHY J'
p149
(dp150
g3
g5
sg4
I875307
sg6
I425000
sg7
I2027865
sg8
I52255
sg9
g5
sg10
g5
sg11
I00
sg12
F3232448.0
sg13
I-775241
sg14
I315068
sg15
I415657
sg16
I210500
sg17
I1204583
sg18
g5
sg19
S'timothy.detmering@enron.com'
p151
sg21
I-315068
sg22
g5
sg23
I2027865
sg24
g5
sg25
I1105
sg26
g5
ssS'WAKEHAM JOHN'
p152
(dp153
g3
g5
sg4
g5
sg6
g5
sg7
g5
sg8
I103773
sg9
g5
sg10
g5
sg11
I00
sg12
g34
sg13
g5
sg14
g5
sg15
g5
sg16
g5
sg17
I213071
sg18
g5
sg19
g5
sg21
g5
sg22
g5
sg23
g5
sg24
g5
sg25
g5
sg26
I109298
ssS'POWERS WILLIAM'
p154
(dp155
g3
I653
sg4
g5
sg6
g5
sg7
g5
sg8
g5
sg9
I0
sg10
I0
sg11
I00
sg12
g34
sg13
I-17500
sg14
g5
sg15
g5
sg16
g5
sg17
g5
sg18
g5
sg19
S'ken.powers@enron.com'
p156
sg21
g5
sg22
I12
sg23
g5
sg24
I26
sg25
g5
sg26
I17500
ssS'GOLD JOSEPH'
p157
(dp158
g3
g5
sg4
g5
sg6
I750000
sg7
I877611
sg8
g5
sg9
g5
sg10
g5
sg11
I00
sg12
F3024584.0
sg13
g5
sg14
I441096
sg15
I304805
sg16
I272880
sg17
I2146973
sg18
g5
sg19
S'joe.gold@enron.com'
p159
sg21
g5
sg22
g5
sg23
I436515
sg24
g5
sg25
I819288
sg26
g5
ssS'BANNANTINE JAMES M'
p160
(dp161
g3
I566
sg4
g5
sg6
g5
sg7
I5243487
sg8
I56301
sg9
I39
sg10
I0
sg11
I00
sg12
F6159684.0
sg13
I-5104
sg14
I1757552
sg15
g5
sg16
I477
sg17
I916197
sg18
g5
sg19
S'james.bannantine@enron.com'
p162
sg21
I-560222
sg22
I465
sg23
I4046157
sg24
I29
sg25
I864523
sg26
g5
ssS'DUNCAN JOHN H'
p163
(dp164
g3
g5
sg4
g5
sg6
g5
sg7
I371750
sg8
g5
sg9
g5
sg10
g5
sg11
I00
sg12
F449242.0
sg13
I-25000
sg14
g5
sg15
g5
sg16
g5
sg17
I77492
sg18
g5
sg19
g5
sg21
g5
sg22
g5
sg23
I371750
sg24
g5
sg25
g5
sg26
I102492
ssS'SHAPIRO RICHARD S'
p165
(dp166
g3
I15149
sg4
g5
sg6
I650000
sg7
I987001
sg8
I137767
sg9
I74
sg10
I65
sg11
I00
sg12
F2044549.0
sg13
g5
sg14
I379164
sg15
g5
sg16
I269076
sg17
I1057548
sg18
g5
sg19
S'richard.shapiro@enron.com'
p167
sg21
g5
sg22
I4527
sg23
I607837
sg24
I1215
sg25
I705
sg26
g5
ssS'SHERRIFF JOHN R'
p168
(dp169
g3
I3187
sg4
g5
sg6
I1500000
sg7
I3128982
sg8
g5
sg9
I28
sg10
I23
sg11
I00
sg12
F7464370.0
sg13
g5
sg14
I1293424
sg15
I554422
sg16
I428780
sg17
I4335388
sg18
g5
sg19
S'john.sherriff@enron.com'
p170
sg21
g5
sg22
I2103
sg23
I1835558
sg24
I92
sg25
I1852186
sg26
g5
ssS'SHELBY REX'
p171
(dp172
g3
I225
sg4
g5
sg6
I200000
sg7
I2493616
sg8
I22884
sg9
I13
sg10
I14
sg11
I01
sg12
F4497501.0
sg13
I-4167
sg14
I869220
sg15
g5
sg16
I211844
sg17
I2003885
sg18
g5
sg19
S'rex.shelby@enron.com'
p173
sg21
g5
sg22
I91
sg23
I1624396
sg24
I39
sg25
I1573324
sg26
g5
ssS'LEMAISTRE CHARLES'
p174
(dp175
g3
g5
sg4
g5
sg6
g5
sg7
I412878
sg8
g5
sg9
g5
sg10
g5
sg11
I00
sg12
F500370.0
sg13
I-25000
sg14
g5
sg15
g5
sg16
g5
sg17
I87492
sg18
g5
sg19
g5
sg21
g5
sg22
g5
sg23
I412878
sg24
g5
sg25
g5
sg26
I112492
ssS'DEFFNER JOSEPH M'
p176
(dp177
g3
I714
sg4
g5
sg6
I600000
sg7
I159211
sg8
I41626
sg9
I115
sg10
I4
sg11
I00
sg12
F1367860.0
sg13
g5
sg14
I141833
sg15
I335349
sg16
I206121
sg17
I1208649
sg18
g5
sg19
S'joseph.deffner@enron.com'
p178
sg21
g5
sg22
I552
sg23
I17378
sg24
I74
sg25
I25553
sg26
g5
ssS'KISHKILL JOSEPH G'
p179
(dp180
g3
g5
sg4
g5
sg6
g5
sg7
I1034346
sg8
I116335
sg9
g5
sg10
g5
sg11
I00
sg12
F1739242.0
sg13
I-51042
sg14
I1034346
sg15
g5
sg16
I174246
sg17
I704896
sg18
g5
sg19
S'joe.kishkill@enron.com'
p181
sg21
g5
sg22
g5
sg23
g5
sg24
g5
sg25
I465357
sg26
g5
ssS'WHALLEY LAWRENCE G'
p182
(dp183
g3
I6019
sg4
g5
sg6
I3000000
sg7
I6079137
sg8
I57838
sg9
I186
sg10
I24
sg11
I00
sg12
F10756711.0
sg13
g5
sg14
I2796177
sg15
I808346
sg16
I510364
sg17
I4677574
sg18
g5
sg19
S'greg.whalley@enron.com'
p184
sg21
g5
sg22
I3920
sg23
I3282960
sg24
I556
sg25
I301026
sg26
g5
ssS'MCCONNELL MICHAEL S'
p185
(dp186
g3
I3329
sg4
g5
sg6
I1100000
sg7
I3101279
sg8
I81364
sg9
I92
sg10
I194
sg11
I00
sg12
F5202643.0
sg13
g5
sg14
I1478269
sg15
I554422
sg16
I365038
sg17
I2101364
sg18
g5
sg19
S'mike.mcconnell@enron.com'
p187
sg21
g5
sg22
I2189
sg23
I1623010
sg24
I2742
sg25
I540
sg26
g5
ssS'PIRO JIM'
p188
(dp189
g3
I58
sg4
g5
sg6
g5
sg7
I47304
sg8
g5
sg9
I0
sg10
I1
sg11
I00
sg12
g34
sg13
g5
sg14
I47304
sg15
g5
sg16
g5
sg17
g5
sg18
g5
sg19
S'jim.piro@enron.com'
p190
sg21
g5
sg22
I3
sg23
g5
sg24
I16
sg25
g5
sg26
g5
ssS'DELAINEY DAVID W'
p191
(dp192
g3
I3093
sg4
g5
sg6
I3000000
sg7
I3614261
sg8
I86174
sg9
I66
sg10
I609
sg11
I01
sg12
F8362240.0
sg13
g5
sg14
I1323148
sg15
I1294981
sg16
I365163
sg17
I4747979
sg18
g5
sg19
S'david.delainey@enron.com'
p193
sg21
g5
sg22
I2097
sg23
I2291113
sg24
I3069
sg25
I1661
sg26
g5
ssS'SULLIVAN-SHAKLOVITZ COLLEEN'
p194
(dp195
g3
g5
sg4
I181993
sg6
I100000
sg7
I1362375
sg8
g5
sg9
g5
sg10
g5
sg11
I00
sg12
F2361731.0
sg13
g5
sg14
g5
sg15
I554422
sg16
I162779
sg17
I999356
sg18
g5
sg19
g5
sg21
g5
sg22
g5
sg23
I1362375
sg24
g5
sg25
I162
sg26
g5
ssS'LINDHOLM TOD A'
p196
(dp197
g3
g5
sg4
I204075
sg6
I200000
sg7
I3064208
sg8
I57727
sg9
g5
sg10
g5
sg11
I00
sg12
F3940097.0
sg13
g5
sg14
I514847
sg15
I175000
sg16
I236457
sg17
I875889
sg18
g5
sg19
S'tod.lindholm@enron.com'
p198
sg21
g5
sg22
g5
sg23
I2549361
sg24
g5
sg25
I2630
sg26
g5
ssS'MEYER JEROME J'
p199
(dp200
g3
g5
sg4
g5
sg6
g5
sg7
g5
sg8
I2151
sg9
g5
sg10
g5
sg11
I00
sg12
g34
sg13
I-38346
sg14
g5
sg15
g5
sg16
g5
sg17
I2151
sg18
g5
sg19
g5
sg21
g5
sg22
g5
sg23
g5
sg24
g5
sg25
g5
sg26
I38346
ssS'BUTTS ROBERT H'
p201
(dp202
g3
g5
sg4
g5
sg6
I750000
sg7
I417619
sg8
I9410
sg9
g5
sg10
g5
sg11
I00
sg12
F1689201.0
sg13
I-75000
sg14
I417619
sg15
I175000
sg16
I261516
sg17
I1271582
sg18
g5
sg19
S'bob.butts@enron.com'
p203
sg21
g5
sg22
g5
sg23
g5
sg24
g5
sg25
I150656
sg26
g5
ssS'OLSON CINDY K'
p204
(dp205
g3
I1184
sg4
I77716
sg6
I750000
sg7
I2606763
sg8
I63791
sg9
I20
sg10
I15
sg11
I00
sg12
F3928320.0
sg13
g5
sg14
I969729
sg15
I100000
sg16
I329078
sg17
I1321557
sg18
g5
sg19
S'cindy.olson@enron.com'
p206
sg21
g5
sg22
I856
sg23
I1637034
sg24
I52
sg25
I972
sg26
g5
ssS'MCDONALD REBECCA'
p207
(dp208
g3
I894
sg4
g5
sg6
g5
sg7
I1691366
sg8
g5
sg9
I54
sg10
I1
sg11
I00
sg12
g34
sg13
g5
sg14
I934065
sg15
g5
sg16
g5
sg17
g5
sg18
g5
sg19
S'rebecca.mcdonald@enron.com'
p209
sg21
g5
sg22
I720
sg23
I757301
sg24
I13
sg25
g5
sg26
g5
ssS'CUMBERLAND MICHAEL S'
p210
(dp211
g3
g5
sg4
g5
sg6
I325000
sg7
I207940
sg8
I22344
sg9
g5
sg10
g5
sg11
I00
sg12
F1015896.0
sg13
g5
sg14
I207940
sg15
I275000
sg16
I184899
sg17
I807956
sg18
g5
sg19
g5
sg21
g5
sg22
g5
sg23
g5
sg24
g5
sg25
I713
sg26
g5
ssS'GAHN ROBERT S'
p212
(dp213
g3
g5
sg4
I73122
sg6
I509870
sg7
I318607
sg8
I50080
sg9
g5
sg10
g5
sg11
I00
sg12
F1219192.0
sg13
I-1042
sg14
I235370
sg15
g5
sg16
I192008
sg17
I900585
sg18
g5
sg19
g5
sg21
g5
sg22
g5
sg23
I83237
sg24
g5
sg25
I76547
sg26
g5
ssS'MCCLELLAN GEORGE'
p214
(dp215
g3
I1744
sg4
g5
sg6
I900000
sg7
I947861
sg8
I228763
sg9
I52
sg10
I0
sg11
I00
sg12
F2266624.0
sg13
I-125000
sg14
I441096
sg15
g5
sg16
I263413
sg17
I1318763
sg18
g5
sg19
S'george.mcclellan@enron.com'
p216
sg21
g5
sg22
I1469
sg23
I506765
sg24
I49
sg25
I51587
sg26
g5
ssS'HERMANN ROBERT J'
p217
(dp218
g3
g5
sg4
g5
sg6
I700000
sg7
I668132
sg8
I48357
sg9
g5
sg10
g5
sg11
I00
sg12
F1965593.0
sg13
I-280000
sg14
I480632
sg15
I150000
sg16
I262663
sg17
I1297461
sg18
g5
sg19
S'robert.hermann@enron.com'
p219
sg21
g5
sg22
g5
sg23
I187500
sg24
g5
sg25
I416441
sg26
g5
ssS'SCRIMSHAW MATTHEW'
p220
(dp221
g3
g5
sg4
g5
sg6
g5
sg7
I759557
sg8
g5
sg9
g5
sg10
g5
sg11
I00
sg12
g34
sg13
g5
sg14
g5
sg15
g5
sg16
g5
sg17
g5
sg18
g5
sg19
S'matthew.scrimshaw@enron.com'
p222
sg21
g5
sg22
g5
sg23
I759557
sg24
g5
sg25
g5
sg26
g5
ssS'GATHMANN WILLIAM D'
p223
(dp224
g3
g5
sg4
g5
sg6
g5
sg7
I1945360
sg8
g5
sg9
g5
sg10
g5
sg11
I00
sg12
g34
sg13
g5
sg14
I264013
sg15
g5
sg16
g5
sg17
g5
sg18
g5
sg19
g5
sg21
I-72419
sg22
g5
sg23
I1753766
sg24
g5
sg25
g5
sg26
g5
ssS'HAEDICKE MARK E'
p225
(dp226
g3
I4009
sg4
I2157527
sg6
I1150000
sg7
I803094
sg8
I76169
sg9
I180
sg10
I61
sg11
I00
sg12
F4662159.0
sg13
I-934484
sg14
I524169
sg15
I983346
sg16
I374125
sg17
I3859065
sg18
g5
sg19
S'mark.haedicke@enron.com'
p227
sg21
I-329825
sg22
I1847
sg23
I608750
sg24
I1941
sg25
I52382
sg26
g5
ssS'BOWEN JR RAYMOND M'
p228
(dp229
g3
I1858
sg4
g5
sg6
I1350000
sg7
I252055
sg8
I65907
sg9
I140
sg10
I15
sg11
I01
sg12
F2921644.0
sg13
I-833
sg14
I252055
sg15
I974293
sg16
I278601
sg17
I2669589
sg18
g5
sg19
S'raymond.bowen@enron.com'
p230
sg21
g5
sg22
I1593
sg23
g5
sg24
I27
sg25
I1621
sg26
g5
ssS'GILLIS JOHN'
p231
(dp232
g3
g5
sg4
g5
sg6
g5
sg7
I85641
sg8
g5
sg9
g5
sg10
g5
sg11
I00
sg12
g34
sg13
g5
sg14
I75838
sg15
g5
sg16
g5
sg17
g5
sg18
g5
sg19
g5
sg21
g5
sg22
g5
sg23
I9803
sg24
g5
sg25
g5
sg26
g5
ssS'FITZGERALD JAY L'
p233
(dp234
g3
I936
sg4
g5
sg6
I350000
sg7
I1621236
sg8
I23870
sg9
I1
sg10
I8
sg11
I00
sg12
F3036093.0
sg13
g5
sg14
I956775
sg15
I556416
sg16
I199157
sg17
I1414857
sg18
g5
sg19
S'jay.fitzgerald@enron.com'
p235
sg21
g5
sg22
I723
sg23
I664461
sg24
I16
sg25
I285414
sg26
g5
ssS'MORAN MICHAEL P'
p236
(dp237
g3
I672
sg4
g5
sg6
g5
sg7
I221141
sg8
g5
sg9
I0
sg10
I0
sg11
I00
sg12
g34
sg13
g5
sg14
I161602
sg15
g5
sg16
g5
sg17
g5
sg18
g5
sg19
S'michael.moran@enron.com'
p238
sg21
g5
sg22
I127
sg23
I59539
sg24
I19
sg25
g5
sg26
g5
ssS'REDMOND BRIAN L'
p239
(dp240
g3
I1671
sg4
g5
sg6
g5
sg7
I7890324
sg8
I14689
sg9
I204
sg10
I49
sg11
I00
sg12
F8001853.0
sg13
g5
sg14
I381285
sg15
g5
sg16
I96840
sg17
I111529
sg18
g5
sg19
S'brian.redmond@enron.com'
p241
sg21
g5
sg22
I1063
sg23
I7509039
sg24
I221
sg25
g5
sg26
g5
ssS'BAZELIDES PHILIP J'
p242
(dp243
g3
g5
sg4
I684694
sg6
g5
sg7
I1599641
sg8
g5
sg9
g5
sg10
g5
sg11
I00
sg12
F2459777.0
sg13
g5
sg14
g5
sg15
I93750
sg16
I80818
sg17
I860136
sg18
g5
sg19
g5
sg21
g5
sg22
g5
sg23
I1599641
sg24
g5
sg25
I874
sg26
g5
ssS'BELDEN TIMOTHY N'
p244
(dp245
g3
I7991
sg4
I2144013
sg6
I5249999
sg7
I1110705
sg8
I17355
sg9
I228
sg10
I108
sg11
I01
sg12
F6612335.0
sg13
I-2334434
sg14
I157569
sg15
g5
sg16
I213999
sg17
I5501630
sg18
g5
sg19
S'tim.belden@enron.com'
p246
sg21
g5
sg22
I5521
sg23
I953136
sg24
I484
sg25
I210698
sg26
g5
ssS'DURAN WILLIAM D'
p247
(dp248
g3
I904
sg4
g5
sg6
I750000
sg7
I1640910
sg8
I25785
sg9
I106
sg10
I3
sg11
I00
sg12
F3734173.0
sg13
g5
sg14
I189041
sg15
I1105218
sg16
I210692
sg17
I2093263
sg18
g5
sg19
S'w.duran@enron.com'
p249
sg21
g5
sg22
I599
sg23
I1451869
sg24
I12
sg25
I1568
sg26
g5
ssS'THORN TERENCE H'
p250
(dp251
g3
I266
sg4
I16586
sg6
g5
sg7
I4817796
sg8
I46145
sg9
I0
sg10
I0
sg11
I00
sg12
F5729249.0
sg13
g5
sg14
I365320
sg15
I200000
sg16
I222093
sg17
I911453
sg18
g5
sg19
S'terence.thorn@enron.com'
p252
sg21
g5
sg22
I73
sg23
I4452476
sg24
I41
sg25
I426629
sg26
g5
ssS'FASTOW ANDREW S'
p253
(dp254
g3
g5
sg4
g5
sg6
I1300000
sg7
I1794412
sg8
I55921
sg9
g5
sg10
g5
sg11
I01
sg12
F4218495.0
sg13
I-1386055
sg14
I1794412
sg15
I1736055
sg16
I440698
sg17
I2424083
sg18
g5
sg19
S'andrew.fastow@enron.com'
p255
sg21
g5
sg22
g5
sg23
g5
sg24
g5
sg25
I277464
sg26
g5
ssS'FOY JOE'
p256
(dp257
g3
I57
sg4
I181755
sg6
g5
sg7
I343434
sg8
g5
sg9
I0
sg10
I0
sg11
I00
sg12
F525189.0
sg13
g5
sg14
g5
sg15
g5
sg16
g5
sg17
I181755
sg18
g5
sg19
S'tracy.foy@enron.com'
p258
sg21
g5
sg22
I2
sg23
I343434
sg24
I13
sg25
g5
sg26
g5
ssS'CALGER CHRISTOPHER F'
p259
(dp260
g3
I2598
sg4
g5
sg6
I1250000
sg7
I126027
sg8
I35818
sg9
I199
sg10
I25
sg11
I01
sg12
F1765324.0
sg13
I-262500
sg14
I126027
sg15
I375304
sg16
I240189
sg17
I1639297
sg18
g5
sg19
S'christopher.calger@enron.com'
p261
sg21
g5
sg22
I2188
sg23
g5
sg24
I144
sg25
I486
sg26
g5
ssS'RICE KENNETH D'
p262
(dp263
g3
I905
sg4
g5
sg6
I1750000
sg7
I22542539
sg8
I46950
sg9
I42
sg10
I4
sg11
I01
sg12
F23047589.0
sg13
I-3504386
sg14
I2748364
sg15
I1617011
sg16
I420636
sg17
I505050
sg18
g5
sg19
S'ken.rice@enron.com'
p264
sg21
g5
sg22
I864
sg23
I19794175
sg24
I18
sg25
I174839
sg26
g5
ssS'KAMINSKI WINCENTY J'
p265
(dp266
g3
I4607
sg4
g5
sg6
I400000
sg7
I976037
sg8
I83585
sg9
I41
sg10
I171
sg11
I00
sg12
F2062858.0
sg13
g5
sg14
I126027
sg15
I323466
sg16
I275101
sg17
I1086821
sg18
g5
sg19
S'vince.kaminski@enron.com'
p267
sg21
g5
sg22
I583
sg23
I850010
sg24
I14368
sg25
I4669
sg26
g5
ssS'COX DAVID'
p268
(dp269
g3
I102
sg4
g5
sg6
I800000
sg7
I495633
sg8
I27861
sg9
I0
sg10
I4
sg11
I00
sg12
F1597026.0
sg13
I-41250
sg14
I378082
sg15
g5
sg16
I314288
sg17
I1101393
sg18
g5
sg19
S'chip.cox@enron.com'
p270
sg21
g5
sg22
I71
sg23
I117551
sg24
I33
sg25
I494
sg26
g5
ssS'OVERDYKE JR JERE C'
p271
(dp272
g3
g5
sg4
g5
sg6
g5
sg7
I7307594
sg8
I18834
sg9
g5
sg10
g5
sg11
I00
sg12
F7557381.0
sg13
g5
sg14
I2041016
sg15
I135836
sg16
I94941
sg17
I249787
sg18
g5
sg19
S'jere.overdyke@enron.com'
p273
sg21
g5
sg22
g5
sg23
I5266578
sg24
g5
sg25
I176
sg26
g5
ssS'PEREIRA PAULO V. FERRAZ'
p274
(dp275
g3
g5
sg4
g5
sg6
g5
sg7
g5
sg8
I27942
sg9
g5
sg10
g5
sg11
I00
sg12
g34
sg13
I-101250
sg14
g5
sg15
g5
sg16
g5
sg17
I27942
sg18
g5
sg19
g5
sg21
g5
sg22
g5
sg23
g5
sg24
g5
sg25
g5
sg26
I101250
ssS'STABLER FRANK'
p276
(dp277
g3
g5
sg4
g5
sg6
I500000
sg7
I511734
sg8
I16514
sg9
g5
sg10
g5
sg11
I00
sg12
F1623821.0
sg13
g5
sg14
I511734
sg15
g5
sg16
I239502
sg17
I1112087
sg18
g5
sg19
S'frank.stabler@enron.com'
p278
sg21
g5
sg22
g5
sg23
g5
sg24
g5
sg25
I356071
sg26
g5
ssS'SKILLING JEFFREY K'
p279
(dp280
g3
I3627
sg4
g5
sg6
I5600000
sg7
I26093672
sg8
I29336
sg9
I88
sg10
I30
sg11
I01
sg12
F34776388.0
sg13
g5
sg14
I6843672
sg15
I1920000
sg16
I1111258
sg17
I8682716
sg18
g5
sg19
S'jeff.skilling@enron.com'
p281
sg21
g5
sg22
I2042
sg23
I19250000
sg24
I108
sg25
I22122
sg26
g5
ssS'BLAKE JR. NORMAN P'
p282
(dp283
g3
g5
sg4
g5
sg6
g5
sg7
g5
sg8
I1279
sg9
g5
sg10
g5
sg11
I00
sg12
g34
sg13
I-113784
sg14
g5
sg15
g5
sg16
g5
sg17
I1279
sg18
g5
sg19
g5
sg21
g5
sg22
g5
sg23
g5
sg24
g5
sg25
g5
sg26
I113784
ssS'SHERRICK JEFFREY B'
p284
(dp285
g3
I613
sg4
g5
sg6
g5
sg7
I1832468
sg8
g5
sg9
I39
sg10
I18
sg11
I00
sg12
g34
sg13
g5
sg14
I405999
sg15
g5
sg16
g5
sg17
g5
sg18
g5
sg19
S'jeffrey.sherrick@enron.com'
p286
sg21
g5
sg22
I583
sg23
I1426469
sg24
I25
sg25
g5
sg26
g5
ssS'PRENTICE JAMES'
p287
(dp288
g3
g5
sg4
I564348
sg6
g5
sg7
I1095040
sg8
g5
sg9
g5
sg10
g5
sg11
I00
sg12
F1659388.0
sg13
g5
sg14
I208809
sg15
g5
sg16
g5
sg17
I564348
sg18
g5
sg19
S'james.prentice@enron.com'
p289
sg21
g5
sg22
g5
sg23
I886231
sg24
g5
sg25
g5
sg26
g5
ssS'GRAY RODNEY'
p290
(dp291
g3
g5
sg4
I93585
sg6
g5
sg7
g5
sg8
g5
sg9
g5
sg10
g5
sg11
I00
sg12
g34
sg13
g5
sg14
g5
sg15
I365625
sg16
I6615
sg17
I1146658
sg18
g5
sg19
g5
sg21
g5
sg22
g5
sg23
g5
sg24
g5
sg25
I680833
sg26
g5
ssS'PICKERING MARK R'
p292
(dp293
g3
I898
sg4
g5
sg6
I300000
sg7
I28798
sg8
I31653
sg9
I7
sg10
I0
sg11
I00
sg12
F1415488.0
sg13
g5
sg14
g5
sg15
g5
sg16
I655037
sg17
I1386690
sg18
I400000
sg19
S'mark.pickering@enron.com'
p294
sg21
g5
sg22
I728
sg23
I28798
sg24
I67
sg25
g5
sg26
g5
ssS'NOLES JAMES L'
p295
(dp296
g3
g5
sg4
I774401
sg6
g5
sg7
I368705
sg8
g5
sg9
g5
sg10
g5
sg11
I00
sg12
F1143106.0
sg13
g5
sg14
I463261
sg15
g5
sg16
g5
sg17
I774401
sg18
g5
sg19
g5
sg21
I-94556
sg22
g5
sg23
g5
sg24
g5
sg25
g5
sg26
g5
ssS'KEAN STEVEN J'
p297
(dp298
g3
I12754
sg4
g5
sg6
I1000000
sg7
I6153642
sg8
I41953
sg9
I140
sg10
I387
sg11
I00
sg12
F7901164.0
sg13
g5
sg14
I4131594
sg15
I300000
sg16
I404338
sg17
I1747522
sg18
g5
sg19
S'steven.kean@enron.com'
p299
sg21
g5
sg22
I3639
sg23
I2022048
sg24
I6759
sg25
I1231
sg26
g5
ssS'FOWLER PEGGY'
p300
(dp301
g3
I517
sg4
g5
sg6
g5
sg7
I1884748
sg8
g5
sg9
I0
sg10
I0
sg11
I00
sg12
g34
sg13
g5
sg14
I560170
sg15
g5
sg16
g5
sg17
g5
sg18
g5
sg19
S'kulvinder.fowler@enron.com'
p302
sg21
g5
sg22
I10
sg23
I1324578
sg24
I36
sg25
g5
sg26
g5
ssS'WASAFF GEORGE'
p303
(dp304
g3
I400
sg4
I831299
sg6
I325000
sg7
I2056427
sg8
g5
sg9
I22
sg10
I7
sg11
I00
sg12
F3090822.0
sg13
I-583325
sg14
I388167
sg15
I200000
sg16
I259996
sg17
I1034395
sg18
g5
sg19
S'george.wasaff@enron.com'
p305
sg21
g5
sg22
I337
sg23
I1668260
sg24
I30
sg25
I1425
sg26
g5
ssS'WHITE JR THOMAS E'
p306
(dp307
g3
g5
sg4
g5
sg6
I450000
sg7
I15144123
sg8
I81353
sg9
g5
sg10
g5
sg11
I00
sg12
F17078482.0
sg13
g5
sg14
I13847074
sg15
g5
sg16
I317543
sg17
I1934359
sg18
g5
sg19
S'thomas.white@enron.com'
p308
sg21
g5
sg22
g5
sg23
I1297049
sg24
g5
sg25
I1085463
sg26
g5
ssS'CHRISTODOULOU DIOMEDES'
p309
(dp310
g3
g5
sg4
g5
sg6
g5
sg7
I6077885
sg8
g5
sg9
g5
sg10
g5
sg11
I00
sg12
g34
sg13
g5
sg14
I950730
sg15
g5
sg16
g5
sg17
g5
sg18
g5
sg19
S'diomedes.christodoulou@enron.com'
p311
sg21
g5
sg22
g5
sg23
I5127155
sg24
g5
sg25
g5
sg26
g5
ssS'ALLEN PHILLIP K'
p312
(dp313
g3
I2902
sg4
I2869717
sg6
I4175000
sg7
I1729541
sg8
I13868
sg9
I47
sg10
I65
sg11
I00
sg12
F6213983.0
sg13
I-3081055
sg14
I126027
sg15
I304805
sg16
I201955
sg17
I4484442
sg18
g5
sg19
S'phillip.allen@enron.com'
p314
sg21
I-126027
sg22
I1407
sg23
I1729541
sg24
I2195
sg25
I152
sg26
g5
ssS'SHARP VICTORIA T'
p315
(dp316
g3
I3136
sg4
I187469
sg6
I600000
sg7
I494136
sg8
I116337
sg9
I24
sg10
I6
sg11
I00
sg12
F2070647.0
sg13
g5
sg14
I213063
sg15
I422158
sg16
I248146
sg17
I1576511
sg18
g5
sg19
S'vicki.sharp@enron.com'
p317
sg21
g5
sg22
I2477
sg23
I281073
sg24
I136
sg25
I2401
sg26
g5
ssS'JAEDICKE ROBERT'
p318
(dp319
g3
g5
sg4
g5
sg6
g5
sg7
I431750
sg8
g5
sg9
g5
sg10
g5
sg11
I00
sg12
F515500.0
sg13
I-25000
sg14
I44093
sg15
g5
sg16
g5
sg17
I83750
sg18
g5
sg19
g5
sg21
I-44093
sg22
g5
sg23
I431750
sg24
g5
sg25
g5
sg26
I108750
ssS'WINOKUR JR. HERBERT S'
p320
(dp321
g3
g5
sg4
g5
sg6
g5
sg7
g5
sg8
I1413
sg9
g5
sg10
g5
sg11
I00
sg12
g34
sg13
I-25000
sg14
g5
sg15
g5
sg16
g5
sg17
I84992
sg18
g5
sg19
g5
sg21
g5
sg22
g5
sg23
g5
sg24
g5
sg25
g5
sg26
I108579
ssS'BROWN MICHAEL'
p322
(dp323
g3
I1486
sg4
g5
sg6
g5
sg7
g5
sg8
I49288
sg9
I13
sg10
I1
sg11
I00
sg12
g34
sg13
g5
sg14
g5
sg15
g5
sg16
g5
sg17
I49288
sg18
g5
sg19
S'michael.brown@enron.com'
p324
sg21
g5
sg22
I761
sg23
g5
sg24
I41
sg25
g5
sg26
g5
ssS'BADUM JAMES P'
p325
(dp326
g3
g5
sg4
I178980
sg6
g5
sg7
I257817
sg8
I3486
sg9
g5
sg10
g5
sg11
I00
sg12
F440283.0
sg13
g5
sg14
g5
sg15
g5
sg16
g5
sg17
I182466
sg18
g5
sg19
g5
sg21
g5
sg22
g5
sg23
I257817
sg24
g5
sg25
g5
sg26
g5
ssS'HUGHES JAMES A'
p327
(dp328
g3
I719
sg4
g5
sg6
g5
sg7
I1118394
sg8
g5
sg9
I35
sg10
I5
sg11
I00
sg12
g34
sg13
g5
sg14
I363428
sg15
g5
sg16
g5
sg17
g5
sg18
g5
sg19
S'james.hughes@enron.com'
p329
sg21
g5
sg22
I589
sg23
I754966
sg24
I34
sg25
g5
sg26
g5
ssS'REYNOLDS LAWRENCE'
p330
(dp331
g3
g5
sg4
I51365
sg6
I100000
sg7
I4221891
sg8
I8409
sg9
g5
sg10
g5
sg11
I00
sg12
F4616366.0
sg13
I-200000
sg14
I201483
sg15
I156250
sg16
I76399
sg17
I394475
sg18
g5
sg19
g5
sg21
I-140264
sg22
g5
sg23
I4160672
sg24
g5
sg25
I202052
sg26
g5
ssS'DIMICHELE RICHARD G'
p332
(dp333
g3
g5
sg4
g5
sg6
I1000000
sg7
I8317782
sg8
I35812
sg9
g5
sg10
g5
sg11
I00
sg12
F10685933.0
sg13
g5
sg14
I126027
sg15
I694862
sg16
I262788
sg17
I2368151
sg18
g5
sg19
S'richard.dimichele@enron.com'
p334
sg21
g5
sg22
g5
sg23
I8191755
sg24
g5
sg25
I374689
sg26
g5
ssS'BHATNAGAR SANJAY'
p335
(dp336
g3
I523
sg4
g5
sg6
g5
sS'total_stock_value'
p337
S'NaN'
p338
sg8
g5
sg9
I0
sg10
I1
sg11
I00
sg12
g34
sg13
g5
sg14
I-2604490
sg15
g5
sg16
g5
sg17
I15456290
sg18
g5
sg19
S'sanjay.bhatnagar@enron.com'
p339
sg21
I15456290
sg22
I463
sg23
I2604490
sg24
I29
sg25
I137864
sg26
I137864
ssS'CARTER REBECCA C'
p340
(dp341
g3
I312
sg4
g5
sg6
I300000
sg7
g5
sg8
g5
sg9
I29
sg10
I7
sg11
I00
sg12
g34
sg13
I-159792
sg14
I307301
sg15
I75000
sg16
I261809
sg17
I477557
sg18
g5
sg19
S'rebecca.carter@enron.com'
p342
sg21
I-307301
sg22
I196
sg23
g5
sg24
I15
sg25
I540
sg26
g5
ssS'BUCHANAN HAROLD G'
p343
(dp344
g3
I1088
sg4
g5
sg6
I500000
sg7
I1014505
sg8
I600
sg9
I0
sg10
I0
sg11
I00
sg12
F2069142.0
sg13
g5
sg14
I189041
sg15
I304805
sg16
I248017
sg17
I1054637
sg18
g5
sg19
S'john.buchanan@enron.com'
p345
sg21
g5
sg22
I23
sg23
I825464
sg24
I125
sg25
I1215
sg26
g5
ssS'YEAP SOON'
p346
(dp347
g3
g5
sg4
g5
sg6
g5
sg7
I192758
sg8
I55097
sg9
g5
sg10
g5
sg11
I00
sg12
F247855.0
sg13
g5
sg14
g5
sg15
g5
sg16
g5
sg17
I55097
sg18
g5
sg19
g5
sg21
g5
sg22
g5
sg23
I192758
sg24
g5
sg25
g5
sg26
g5
ssS'MURRAY JULIA H'
p348
(dp349
g3
I2192
sg4
g5
sg6
I400000
sg7
I597461
sg8
I57580
sg9
I11
sg10
I2
sg11
I00
sg12
F1409655.0
sg13
g5
sg14
I196983
sg15
I125000
sg16
I229284
sg17
I812194
sg18
g5
sg19
S'julia.murray@enron.com'
p350
sg21
g5
sg22
I395
sg23
I400478
sg24
I45
sg25
I330
sg26
g5
ssS'GARLAND C KEVIN'
p351
(dp352
g3
I209
sg4
g5
sg6
I850000
sg7
I896153
sg8
I48405
sg9
I10
sg10
I27
sg11
I00
sg12
F2462622.0
sg13
g5
sg14
I259907
sg15
I375304
sg16
I231946
sg17
I1566469
sg18
g5
sg19
S'kevin.garland@enron.com'
p353
sg21
g5
sg22
I178
sg23
I636246
sg24
I44
sg25
I60814
sg26
g5
ssS'DODSON KEITH'
p354
(dp355
g3
I176
sg4
g5
sg6
I70000
sg7
g5
sg8
I28164
sg9
I10
sg10
I3
sg11
I00
sg12
g34
sg13
g5
sg14
g5
sg15
g5
sg16
I221003
sg17
I319941
sg18
g5
sg19
S'keith.dodson@enron.com'
p356
sg21
g5
sg22
I114
sg23
g5
sg24
I14
sg25
I774
sg26
g5
ssS'YEAGER F SCOTT'
p357
(dp358
g3
g5
sg4
g5
sg6
g5
sg7
I11884758
sg8
I53947
sg9
g5
sg10
g5
sg11
I01
sg12
F12245058.0
sg13
g5
sg14
I3576206
sg15
g5
sg16
I158403
sg17
I360300
sg18
g5
sg19
S'scott.yeager@enron.com'
p359
sg21
g5
sg22
g5
sg23
I8308552
sg24
g5
sg25
I147950
sg26
g5
ssS'HIRKO JOSEPH'
p360
(dp361
g3
g5
sg4
I10259
sg6
g5
sg7
I30766064
sg8
I77978
sg9
g5
sg10
g5
sg11
I01
sg12
F30857157.0
sg13
g5
sg14
g5
sg15
g5
sg16
g5
sg17
I91093
sg18
g5
sg19
S'joe.hirko@enron.com'
p362
sg21
g5
sg22
g5
sg23
I30766064
sg24
g5
sg25
I2856
sg26
g5
ssS'DIETRICH JANET R'
p363
(dp364
g3
I2572
sg4
g5
sg6
I600000
sg7
I1865087
sg8
I3475
sg9
I305
sg10
I14
sg11
I00
sg12
F3275551.0
sg13
g5
sg14
I315068
sg15
I556416
sg16
I250100
sg17
I1410464
sg18
g5
sg19
S'janet.dietrich@enron.com'
p365
sg21
g5
sg22
I1902
sg23
I1550019
sg24
I63
sg25
I473
sg26
g5
ssS'DERRICK JR. JAMES V'
p366
(dp367
g3
I2181
sg4
g5
sg6
I800000
sg7
I8831913
sg8
I51124
sg9
I64
sg10
I20
sg11
I00
sg12
F9382894.0
sg13
I-1284000
sg14
I1787380
sg15
I484000
sg16
I492375
sg17
I550981
sg18
g5
sg19
S'james.derrick@enron.com'
p368
sg21
I-1787380
sg22
I1401
sg23
I8831913
sg24
I909
sg25
I7482
sg26
g5
ssS'FREVERT MARK A'
p369
(dp370
g3
I3275
sg4
I6426990
sg6
I2000000
sg7
I14622185
sg8
I86987
sg9
I242
sg10
I6
sg11
I00
sg12
F31874715.0
sg13
I-3367011
sg14
I4188667
sg15
I1617011
sg16
I1060932
sg17
I17252530
sg18
I2000000
sg19
S'mark.frevert@enron.com'
p371
sg21
g5
sg22
I2979
sg23
I10433518
sg24
I21
sg25
I7427621
sg26
g5
ssS'PAI LOU L'
p372
(dp373
g3
g5
sg4
g5
sg6
I1000000
sg7
I23817930
sg8
I32047
sg9
g5
sg10
g5
sg11
I00
sg12
F26941313.0
sg13
g5
sg14
I8453763
sg15
g5
sg16
I261879
sg17
I3123383
sg18
g5
sg19
S'lou.pai@enron.com'
p374
sg21
g5
sg22
g5
sg23
I15364167
sg24
g5
sg25
I1829457
sg26
g5
ssS'BAY FRANKLIN R'
p375
(dp376
g3
g5
sg4
I260455
sg6
I400000
sg7
I63014
sg8
I129142
sg9
g5
sg10
g5
sg11
I00
sg12
F890710.0
sg13
I-201641
sg14
I145796
sg15
g5
sg16
I239671
sg17
I827696
sg18
g5
sg19
S'frank.bay@enron.com'
p377
sg21
I-82782
sg22
g5
sg23
g5
sg24
g5
sg25
I69
sg26
g5
ssS'HAYSLETT RODERICK J'
p378
(dp379
g3
I2649
sg4
g5
sg6
g5
sg7
I346663
sg8
g5
sg9
I35
sg10
I38
sg11
I00
sg12
g34
sg13
g5
sg14
I346663
sg15
g5
sg16
g5
sg17
g5
sg18
g5
sg19
S'rod.hayslett@enron.com'
p380
sg21
g5
sg22
I571
sg23
g5
sg24
I1061
sg25
g5
sg26
g5
ssS'FUGH JOHN L'
p381
(dp382
g3
g5
sg4
I50591
sg6
g5
sg7
I176378
sg8
g5
sg9
g5
sg10
g5
sg11
I00
sg12
F226969.0
sg13
g5
sg14
g5
sg15
g5
sg16
g5
sg17
I50591
sg18
g5
sg19
g5
sg21
g5
sg22
g5
sg23
I176378
sg24
g5
sg25
g5
sg26
g5
ssS'FALLON JAMES B'
p383
(dp384
g3
I1755
sg4
g5
sg6
I2500000
sg7
I2332399
sg8
I95924
sg9
I42
sg10
I37
sg11
I00
sg12
F6008739.0
sg13
g5
sg14
I1392142
sg15
I374347
sg16
I304588
sg17
I3676340
sg18
g5
sg19
S'jim.fallon@enron.com'
p385
sg21
g5
sg22
I1604
sg23
I940257
sg24
I75
sg25
I401481
sg26
g5
ssS'KOENIG MARK E'
p386
(dp387
g3
I2374
sg4
g5
sg6
I700000
sg7
I1920055
sg8
I127017
sg9
I53
sg10
I15
sg11
I01
sg12
F3507476.0
sg13
g5
sg14
I1248318
sg15
I300000
sg16
I309946
sg17
I1587421
sg18
g5
sg19
S'mark.koenig@enron.com'
p388
sg21
g5
sg22
I2271
sg23
I671737
sg24
I61
sg25
I150458
sg26
g5
ssS'SAVAGE FRANK'
p389
(dp390
g3
g5
sg4
g5
sg6
g5
sg7
g5
sg8
g5
sg9
g5
sg10
g5
sg11
I00
sg12
g34
sg13
I-121284
sg14
g5
sg15
g5
sg16
g5
sg17
I3750
sg18
g5
sg19
g5
sg21
g5
sg22
g5
sg23
g5
sg24
g5
sg25
g5
sg26
I125034
ssS'IZZO LAWRENCE L'
p391
(dp392
g3
I496
sg4
g5
sg6
g5
sg7
I5819980
sg8
I28093
sg9
I28
sg10
I5
sg11
I00
sg12
F7799576.0
sg13
g5
sg14
I3654808
sg15
I312500
sg16
I85274
sg17
I1979596
sg18
g5
sg19
S'larry.izzo@enron.com'
p393
sg21
g5
sg22
I437
sg23
I2165172
sg24
I19
sg25
I1553729
sg26
g5
ssS'TILNEY ELIZABETH A'
p394
(dp395
g3
I460
sg4
g5
sg6
I300000
sg7
I1168042
sg8
g5
sg9
I10
sg10
I11
sg11
I00
sg12
F1567435.0
sg13
I-575000
sg14
I576792
sg15
I275000
sg16
I247338
sg17
I399393
sg18
g5
sg19
S'elizabeth.tilney@enron.com'
p396
sg21
g5
sg22
I379
sg23
I591250
sg24
I19
sg25
I152055
sg26
g5
ssS'MARTIN AMANDA K'
p397
(dp398
g3
I1522
sg4
I85430
sg6
g5
sg7
I2070306
sg8
I8211
sg9
I8
sg10
I0
sg11
I00
sg12
F10477322.0
sg13
g5
sg14
g5
sg15
I5145434
sg16
I349487
sg17
I8407016
sg18
g5
sg19
S'a..martin@enron.com'
p399
sg21
g5
sg22
I477
sg23
I2070306
sg24
I230
sg25
I2818454
sg26
g5
ssS'BUY RICHARD B'
p400
(dp401
g3
I3523
sg4
I649584
sg6
I900000
sg7
I3444470
sg8
g5
sg9
I156
sg10
I71
sg11
I00
sg12
F5800172.0
sg13
I-694862
sg14
I901657
sg15
I769862
sg16
I330546
sg17
I2355702
sg18
g5
sg19
S'rick.buy@enron.com'
p402
sg21
g5
sg22
I2333
sg23
I2542813
sg24
I1053
sg25
I400572
sg26
g5
ssS'CAUSEY RICHARD A'
p403
(dp404
g3
I1892
sg4
g5
sg6
I1000000
sg7
I2502063
sg8
I30674
sg9
I58
sg10
I12
sg11
I01
sg12
F4370821.0
sg13
I-235000
sg14
I2502063
sg15
I350000
sg16
I415189
sg17
I1868758
sg18
g5
sg19
S'richard.causey@enron.com'
p405
sg21
g5
sg22
I1585
sg23
g5
sg24
I49
sg25
I307895
sg26
g5
ssS'TAYLOR MITCHELL S'
p406
(dp407
g3
I533
sg4
I227449
sg6
I600000
sg7
I3745048
sg8
g5
sg9
I0
sg10
I0
sg11
I00
sg12
F4837711.0
sg13
g5
sg14
I563798
sg15
g5
sg16
I265214
sg17
I1092663
sg18
g5
sg19
S'mitchell.taylor@enron.com'
p408
sg21
g5
sg22
I300
sg23
I3181250
sg24
I29
sg25
g5
sg26
g5
ssS'DONAHUE JR JEFFREY M'
p409
(dp410
g3
I865
sg4
g5
sg6
I800000
sg7
I1080988
sg8
I96268
sg9
I188
sg10
I11
sg11
I00
sg12
F1956748.0
sg13
I-300000
sg14
I315068
sg15
g5
sg16
I278601
sg17
I875760
sg18
g5
sg19
S'jeff.donahue@enron.com'
p411
sg21
g5
sg22
I772
sg23
I765920
sg24
I22
sg25
I891
sg26
g5
ssS'GLISAN JR BEN F'
p412
(dp413
g3
I873
sg4
g5
sg6
I600000
sg7
I778546
sg8
I125978
sg9
I52
sg10
I6
sg11
I01
sg12
F2050830.0
sg13
g5
sg14
I393818
sg15
I71023
sg16
I274975
sg17
I1272284
sg18
g5
sg19
S'ben.glisan@enron.com'
p414
sg21
g5
sg22
I874
sg23
I384728
sg24
I16
sg25
I200308
sg26
g5
ss.