(dp0
S'METTS MARK'
p1
(dp2
S'to_poi_rate'
p3
F0.0
sS'to_messages'
p4
I807
sS'deferral_payments'
p5
S'NaN'
p6
sS'expenses'
p7
I94299
sS'poi'
p8
I00
sS'deferred_income'
p9
g6
sS'email_address'
p10
S'mark.metts@enron.com'
p11
sS'long_term_incentive'
p12
g6
sS'restricted_stock_deferred'
p13
g6
sS'shared_receipt_with_poi'
p14
I702
sS'loan_advances'
p15
g6
sS'from_messages'
p16
I29
sS'other'
p17
I1740
sS'director_fees'
p18
g6
sS'from_poi_rate'
p19
F0.0
sS'bonus'
p20
I600000
sS'total_stock_value'
p21
I585062
sS'from_poi_to_this_person'
p22
I38
sS'from_this_person_to_poi'
p23
I1
sS'total_compensation'
p24
F1.0
sS'restricted_stock'
p25
I585062
sS'salary'
p26
I365788
sS'total_payments'
p27
I1061827
sS'exercised_stock_options'
p28
g6
ssS'BAXTER JOHN C'
p29
(dp30
g3
S'NaN'
p31
sg4
g6
sg5
I1295738
sg7
I11200
sg8
I00
sg9
I-1386055
sg10
g6
sg12
I1586055
sg13
g6
sg14
g6
sg15
g6
sg16
g6
sg17
I2660303
sg18
g6
sg19
g31
sg20
I1200000
sg21
I10623258
sg22
g6
sg23
g6
sg24
F0.0
sg25
I3942714
sg26
I267102
sg27
I5634343
sg28
I6680544
ssS'ELLIOTT STEVEN'
p32
(dp33
g3
g31
sg4
g6
sg5
g6
sg7
I78552
sg8
I00
sg9
I-400729
sg10
S'steven.elliott@enron.com'
p34
sg12
g6
sg13
g6
sg14
g6
sg15
g6
sg16
g6
sg17
I12961
sg18
g6
sg19
g31
sg20
I350000
sg21
I6678735
sg22
g6
sg23
g6
sg24
F0.0
sg25
I1788391
sg26
I170941
sg27
I211725
sg28
I4890344
ssS'CORDES WILLIAM R'
p35
(dp36
g3
F0.0
sg4
I764
sg5
g6
sg7
g6
sg8
I00
sg9
g6
sg10
S'bill.cordes@enron.com'
p37
sg12
g6
sg13
g6
sg14
I58
sg15
g6
sg16
I12
sg17
g6
sg18
g6
sg19
F0.0
sg20
g6
sg21
I1038185
sg22
I10
sg23
I0
sg24
g31
sg25
I386335
sg26
g6
sg27
g6
sg28
I651850
ssS'HANNON KEVIN P'
p38
(dp39
g3
F0.0
sg4
I1045
sg5
g6
sg7
I34039
sg8
I01
sg9
I-3117011
sg10
S'kevin.hannon@enron.com'
p40
sg12
I1617011
sg13
g6
sg14
I1035
sg15
g6
sg16
I32
sg17
I11350
sg18
g6
sg19
F0.0
sg20
I1500000
sg21
I6391065
sg22
I32
sg23
I21
sg24
F0.0
sg25
I853064
sg26
I243293
sg27
I288682
sg28
I5538001
ssS'MORDAUNT KRISTINA M'
p41
(dp42
g3
g31
sg4
g6
sg5
g6
sg7
I35018
sg8
I00
sg9
g6
sg10
S'kristina.mordaunt@enron.com'
p43
sg12
g6
sg13
g6
sg14
g6
sg15
g6
sg16
g6
sg17
I1411
sg18
g6
sg19
g31
sg20
I325000
sg21
I208510
sg22
g6
sg23
g6
sg24
F3.0
sg25
I208510
sg26
I267093
sg27
I628522
sg28
g6
ssS'MEYER ROCKFORD G'
p44
(dp45
g3
F0.0
sg4
I232
sg5
I1848227
sg7
g6
sg8
I00
sg9
g6
sg10
S'rockford.meyer@enron.com'
p46
sg12
g6
sg13
g6
sg14
I22
sg15
g6
sg16
I28
sg17
g6
sg18
g6
sg19
F0.0
sg20
g6
sg21
I955873
sg22
I0
sg23
I0
sg24
F1.0
sg25
I462384
sg26
g6
sg27
I1848227
sg28
I493489
ssS'MCMAHON JEFFREY'
p47
(dp48
g3
F0.0
sg4
I2355
sg5
g6
sg7
I137108
sg8
I00
sg9
g6
sg10
S'jeffrey.mcmahon@enron.com'
p49
sg12
I694862
sg13
g6
sg14
I2228
sg15
g6
sg16
I48
sg17
I297353
sg18
g6
sg19
F0.0
sg20
I2600000
sg21
I1662855
sg22
I58
sg23
I26
sg24
F2.0
sg25
I558801
sg26
I370448
sg27
I4099771
sg28
I1104054
ssS'HAEDICKE MARK E'
p50
(dp51
g3
F0.0
sg4
I4009
sg5
I2157527
sg7
I76169
sg8
I00
sg9
I-934484
sg10
S'mark.haedicke@enron.com'
p52
sg12
I983346
sg13
I-329825
sg14
I1847
sg15
g6
sg16
I1941
sg17
I52382
sg18
g6
sg19
F0.0
sg20
I1150000
sg21
I803094
sg22
I180
sg23
I61
sg24
F4.0
sg25
I524169
sg26
I374125
sg27
I3859065
sg28
I608750
ssS'PIPER GREGORY F'
p53
(dp54
g3
F0.0
sg4
I1238
sg5
I1130036
sg7
I43057
sg8
I00
sg9
I-33333
sg10
S'greg.piper@enron.com'
p55
sg12
g6
sg13
I-409554
sg14
I742
sg15
g6
sg16
I222
sg17
I778
sg18
g6
sg19
F0.0
sg20
I400000
sg21
I880290
sg22
I61
sg23
I48
sg24
F1.0
sg25
I409554
sg26
I197091
sg27
I1737629
sg28
I880290
ssS'NOLES JAMES L'
p56
(dp57
g3
g31
sg4
g6
sg5
I774401
sg7
g6
sg8
I00
sg9
g6
sg10
g6
sg12
g6
sg13
I-94556
sg14
g6
sg15
g6
sg16
g6
sg17
g6
sg18
g6
sg19
g31
sg20
g6
sg21
I368705
sg22
g6
sg23
g6
sg24
F2.0
sg25
I463261
sg26
g6
sg27
I774401
sg28
g6
ssS'BLACHMAN JEREMY M'
p58
(dp59
g3
F0.0
sg4
I2475
sg5
g6
sg7
I84208
sg8
I00
sg9
g6
sg10
S'jeremy.blachman@enron.com'
p60
sg12
I831809
sg13
g6
sg14
I2326
sg15
g6
sg16
I14
sg17
I272
sg18
g6
sg19
F0.0
sg20
I850000
sg21
I954354
sg22
I25
sg23
I2
sg24
F2.0
sg25
I189041
sg26
I248546
sg27
I2014835
sg28
I765313
ssS'SUNDE MARTIN'
p61
(dp62
g3
F0.0
sg4
I2647
sg5
g6
sg7
g6
sg8
I00
sg9
g6
sg10
S'marty.sunde@enron.com'
p63
sg12
I476451
sg13
g6
sg14
I2565
sg15
g6
sg16
I38
sg17
I111122
sg18
g6
sg19
F0.0
sg20
I700000
sg21
I698920
sg22
I37
sg23
I13
sg24
F2.0
sg25
I698920
sg26
I257486
sg27
I1545059
sg28
g6
ssS'GIBBS DANA R'
p64
(dp65
g3
F0.0
sg4
I169
sg5
I504610
sg7
g6
sg8
I00
sg9
g6
sg10
S'dana.gibbs@enron.com'
p66
sg12
I461912
sg13
g6
sg14
I23
sg15
g6
sg16
I12
sg17
g6
sg18
g6
sg19
F0.0
sg20
g6
sg21
I2218275
sg22
I0
sg23
I0
sg24
F0.0
sg25
g6
sg26
g6
sg27
I966522
sg28
I2218275
ssS'LOWRY CHARLES P'
p67
(dp68
g3
g31
sg4
g6
sg5
g6
sg7
g6
sg8
I00
sg9
g6
sg10
g6
sg12
g6
sg13
I-153686
sg14
g6
sg15
g6
sg16
g6
sg17
g6
sg18
g6
sg19
g31
sg20
g6
sg21
I372205
sg22
g6
sg23
g6
sg24
g31
sg25
I153686
sg26
g6
sg27
g6
sg28
I372205
ssS'COLWELL WESLEY'
p69
(dp70
g3
F0.0
sg4
I1758
sg5
I27610
sg7
I16514
sg8
I01
sg9
I-144062
sg10
S'wes.colwell@enron.com'
p71
sg12
g6
sg13
g6
sg14
I1132
sg15
g6
sg16
I40
sg17
I101740
sg18
g6
sg19
F0.0
sg20
I1200000
sg21
I698242
sg22
I240
sg23
I11
sg24
F2.0
sg25
I698242
sg26
I288542
sg27
I1490344
sg28
g6
ssS'MULLER MARK S'
p72
(dp73
g3
F0.0
sg4
I136
sg5
I842924
sg7
g6
sg8
I00
sg9
I-719000
sg10
S's..muller@enron.com'
p74
sg12
I1725545
sg13
g6
sg14
I114
sg15
g6
sg16
I16
sg17
I947
sg18
g6
sg19
F0.0
sg20
I1100000
sg21
I1416848
sg22
I12
sg23
I0
sg24
F2.0
sg25
I360528
sg26
I251654
sg27
I3202070
sg28
I1056320
ssS'JACKSON CHARLENE R'
p75
(dp76
g3
F0.0
sg4
I258
sg5
g6
sg7
I10181
sg8
I00
sg9
g6
sg10
S'charlene.jackson@enron.com'
p77
sg12
g6
sg13
g6
sg14
I117
sg15
g6
sg16
I56
sg17
I2435
sg18
g6
sg19
F0.0
sg20
I250000
sg21
I725735
sg22
I25
sg23
I19
sg24
F0.0
sg25
I540672
sg26
I288558
sg27
I551174
sg28
I185063
ssS'WESTFAHL RICHARD K'
p78
(dp79
g3
g31
sg4
g6
sg5
g6
sg7
I51870
sg8
I00
sg9
I-10800
sg10
S'dick.westfahl@enron.com'
p80
sg12
I256191
sg13
g6
sg14
g6
sg15
g6
sg16
g6
sg17
I401130
sg18
g6
sg19
g31
sg20
g6
sg21
I384930
sg22
g6
sg23
g6
sg24
F1.0
sg25
I384930
sg26
I63744
sg27
I762135
sg28
g6
ssS'WALTERS GARETH W'
p81
(dp82
g3
g31
sg4
g6
sg5
I53625
sg7
I33785
sg8
I00
sg9
g6
sg10
g6
sg12
g6
sg13
g6
sg14
g6
sg15
g6
sg16
g6
sg17
g6
sg18
g6
sg19
g31
sg20
g6
sg21
I1030329
sg22
g6
sg23
g6
sg24
F0.0
sg25
g6
sg26
g6
sg27
I87410
sg28
I1030329
ssS'WALLS JR ROBERT H'
p83
(dp84
g3
F0.0
sg4
I671
sg5
g6
sg7
I50936
sg8
I00
sg9
g6
sg10
S'rob.walls@enron.com'
p85
sg12
I540751
sg13
g6
sg14
I215
sg15
g6
sg16
I146
sg17
I2
sg18
g6
sg19
F0.0
sg20
I850000
sg21
I5898997
sg22
I17
sg23
I0
sg24
F0.0
sg25
I1552453
sg26
I357091
sg27
I1798780
sg28
I4346544
ssS'KITCHEN LOUISE'
p86
(dp87
g3
F0.0
sg4
I8305
sg5
g6
sg7
I5774
sg8
I00
sg9
g6
sg10
S'louise.kitchen@enron.com'
p88
sg12
g6
sg13
g6
sg14
I3669
sg15
g6
sg16
I1728
sg17
I93925
sg18
g6
sg19
F0.0
sg20
I3100000
sg21
I547143
sg22
I251
sg23
I194
sg24
F6.0
sg25
I466101
sg26
I271442
sg27
I3471141
sg28
I81042
ssS'CHAN RONNIE'
p89
(dp90
g3
g31
sg4
g6
sg5
g6
sg7
g6
sg8
I00
sg9
I-98784
sg10
g6
sg12
g6
sg13
I-32460
sg14
g6
sg15
g6
sg16
g6
sg17
g6
sg18
I98784
sg19
g31
sg20
g6
sg21
g6
sg22
g6
sg23
g6
sg24
g31
sg25
I32460
sg26
g6
sg27
g6
sg28
g6
ssS'BELFER ROBERT'
p91
(dp92
g3
g31
sg4
g6
sg5
I-102500
sg7
g6
sg8
I00
sg9
g6
sg10
g6
sg12
g6
sg13
I44093
sg14
g6
sg15
g6
sg16
g6
sg17
g6
sg18
I3285
sg19
g31
sg20
g6
sg21
I-44093
sg22
g6
sg23
g6
sg24
F-3.0
sg25
g6
sg26
g6
sg27
I102500
sg28
I3285
ssS'SHANKMAN JEFFREY A'
p93
(dp94
g3
F0.0
sg4
I3221
sg5
g6
sg7
I178979
sg8
I00
sg9
g6
sg10
S'jeffrey.shankman@enron.com'
p95
sg12
I554422
sg13
g6
sg14
I1730
sg15
g6
sg16
I2681
sg17
I1191
sg18
g6
sg19
F0.0
sg20
I2000000
sg21
I2072035
sg22
I94
sg23
I83
sg24
F1.0
sg25
I630137
sg26
I304110
sg27
I3038702
sg28
I1441898
ssS'WODRASKA JOHN'
p96
(dp97
g3
g31
sg4
g6
sg5
g6
sg7
g6
sg8
I00
sg9
g6
sg10
S'john.wodraska@enron.com'
p98
sg12
g6
sg13
g6
sg14
g6
sg15
g6
sg16
g6
sg17
I189583
sg18
g6
sg19
g31
sg20
g6
sg21
g6
sg22
g6
sg23
g6
sg24
g31
sg25
g6
sg26
g6
sg27
I189583
sg28
g6
ssS'BERGSIEKER RICHARD P'
p99
(dp100
g3
F0.0
sg4
I383
sg5
g6
sg7
I59175
sg8
I00
sg9
I-485813
sg10
S'rick.bergsieker@enron.com'
p101
sg12
I180250
sg13
g6
sg14
I233
sg15
g6
sg16
I59
sg17
I427316
sg18
g6
sg19
F0.0
sg20
I250000
sg21
I659249
sg22
I4
sg23
I0
sg24
F0.0
sg25
I659249
sg26
I187922
sg27
I618850
sg28
g6
ssS'URQUHART JOHN A'
p102
(dp103
g3
g31
sg4
g6
sg5
g6
sg7
I228656
sg8
I00
sg9
I-36666
sg10
g6
sg12
g6
sg13
g6
sg14
g6
sg15
g6
sg16
g6
sg17
g6
sg18
I36666
sg19
g31
sg20
g6
sg21
g6
sg22
g6
sg23
g6
sg24
g31
sg25
g6
sg26
g6
sg27
I228656
sg28
g6
ssS'BIBI PHILIPPE A'
p104
(dp105
g3
F0.0
sg4
I1607
sg5
g6
sg7
I38559
sg8
I00
sg9
g6
sg10
S'philippe.bibi@enron.com'
p106
sg12
I369721
sg13
g6
sg14
I1336
sg15
g6
sg16
I40
sg17
I425688
sg18
g6
sg19
F0.0
sg20
I1000000
sg21
I1843816
sg22
I23
sg23
I8
sg24
F1.0
sg25
I378082
sg26
I213625
sg27
I2047593
sg28
I1465734
ssS'RIEKER PAULA H'
p107
(dp108
g3
F0.0
sg4
I1328
sg5
I214678
sg7
I33271
sg8
I01
sg9
I-100000
sg10
S'paula.rieker@enron.com'
p109
sg12
g6
sg13
g6
sg14
I1258
sg15
g6
sg16
I82
sg17
I1950
sg18
g6
sg19
F0.0
sg20
I700000
sg21
I1918887
sg22
I35
sg23
I48
sg24
F0.0
sg25
I283649
sg26
I249201
sg27
I1099100
sg28
I1635238
ssS'WHALEY DAVID A'
p110
(dp111
g3
g31
sg4
g6
sg5
g6
sg7
g6
sg8
I00
sg9
g6
sg10
g6
sg12
g6
sg13
g6
sg14
g6
sg15
g6
sg16
g6
sg17
g6
sg18
g6
sg19
g31
sg20
g6
sg21
I98718
sg22
g6
sg23
g6
sg24
g31
sg25
g6
sg26
g6
sg27
g6
sg28
I98718
ssS'BECK SALLY W'
p112
(dp113
g3
F0.0
sg4
I7315
sg5
g6
sg7
I37172
sg8
I00
sg9
g6
sg10
S'sally.beck@enron.com'
p114
sg12
g6
sg13
g6
sg14
I2639
sg15
g6
sg16
I4343
sg17
I566
sg18
g6
sg19
F0.0
sg20
I700000
sg21
I126027
sg22
I144
sg23
I386
sg24
F7.0
sg25
I126027
sg26
I231330
sg27
I969068
sg28
g6
ssS'HAUG DAVID L'
p115
(dp116
g3
F0.0
sg4
I573
sg5
g6
sg7
I475
sg8
I00
sg9
g6
sg10
S'david.haug@enron.com'
p117
sg12
g6
sg13
g6
sg14
I471
sg15
g6
sg16
I19
sg17
g6
sg18
g6
sg19
F0.0
sg20
g6
sg21
I2217299
sg22
I4
sg23
I7
sg24
F0.0
sg25
I2217299
sg26
g6
sg27
I475
sg28
g6
ssS'ECHOLS JOHN B'
p118
(dp119
g3
g31
sg4
g6
sg5
g6
sg7
I21530
sg8
I00
sg9
g6
sg10
S'john.echols@enron.com'
p120
sg12
I2234774
sg13
g6
sg14
g6
sg15
g6
sg16
g6
sg17
I53775
sg18
g6
sg19
g31
sg20
I200000
sg21
I1008941
sg22
g6
sg23
g6
sg24
F2.0
sg25
I407503
sg26
I182245
sg27
I2692324
sg28
I601438
ssS'MENDELSOHN JOHN'
p121
(dp122
g3
g31
sg4
g6
sg5
g6
sg7
I148
sg8
I00
sg9
I-103750
sg10
g6
sg12
g6
sg13
g6
sg14
g6
sg15
g6
sg16
g6
sg17
g6
sg18
I103750
sg19
g31
sg20
g6
sg21
g6
sg22
g6
sg23
g6
sg24
g31
sg25
g6
sg26
g6
sg27
I148
sg28
g6
ssS'HICKERSON GARY J'
p123
(dp124
g3
F0.0
sg4
I1320
sg5
g6
sg7
I98849
sg8
I00
sg9
g6
sg10
S'gary.hickerson@enron.com'
p125
sg12
I69223
sg13
g6
sg14
I900
sg15
g6
sg16
I27
sg17
I1936
sg18
g6
sg19
F0.0
sg20
I1700000
sg21
I441096
sg22
I40
sg23
I1
sg24
F4.0
sg25
I441096
sg26
I211788
sg27
I2081796
sg28
g6
ssS'CLINE KENNETH W'
p126
(dp127
g3
g31
sg4
g6
sg5
g6
sg7
g6
sg8
I00
sg9
g6
sg10
g6
sg12
g6
sg13
I-472568
sg14
g6
sg15
g6
sg16
g6
sg17
g6
sg18
g6
sg19
g31
sg20
g6
sg21
I189518
sg22
g6
sg23
g6
sg24
g31
sg25
I662086
sg26
g6
sg27
g6
sg28
g6
ssS'LEWIS RICHARD'
p128
(dp129
g3
F0.0
sg4
I952
sg5
g6
sg7
g6
sg8
I00
sg9
g6
sg10
S'richard.lewis@enron.com'
p130
sg12
g6
sg13
g6
sg14
I739
sg15
g6
sg16
I26
sg17
g6
sg18
g6
sg19
F0.0
sg20
g6
sg21
I850477
sg22
I10
sg23
I0
sg24
g31
sg25
g6
sg26
g6
sg27
g6
sg28
I850477
ssS'HAYES ROBERT E'
p131
(dp132
g3
F0.0
sg4
I504
sg5
I7961
sg7
g6
sg8
I00
sg9
g6
sg10
S'robert.hayes@enron.com'
p133
sg12
g6
sg13
g6
sg14
I50
sg15
g6
sg16
I12
sg17
g6
sg18
g6
sg19
F0.0
sg20
g6
sg21
I151418
sg22
I16
sg23
I0
sg24
F0.0
sg25
I151418
sg26
g6
sg27
I7961
sg28
g6
ssS'KOPPER MICHAEL J'
p134
(dp135
g3
g31
sg4
g6
sg5
g6
sg7
I118134
sg8
I01
sg9
g6
sg10
S'michael.kopper@enron.com'
p136
sg12
I602671
sg13
g6
sg14
g6
sg15
g6
sg16
g6
sg17
I907502
sg18
g6
sg19
g31
sg20
I800000
sg21
I985032
sg22
g6
sg23
g6
sg24
F2.0
sg25
I985032
sg26
I224305
sg27
I2652612
sg28
g6
ssS'LEFF DANIEL P'
p137
(dp138
g3
F0.0
sg4
I2822
sg5
g6
sg7
g6
sg8
I00
sg9
g6
sg10
S'dan.leff@enron.com'
p139
sg12
I1387399
sg13
g6
sg14
I2672
sg15
g6
sg16
I63
sg17
I3083
sg18
g6
sg19
F0.0
sg20
I1000000
sg21
I360528
sg22
I67
sg23
I14
sg24
F7.0
sg25
I360528
sg26
I273746
sg27
I2664228
sg28
g6
ssS'CHRISTODOULOU DIOMEDES'
p140
(dp141
g3
g31
sg4
g6
sg5
g6
sg7
g6
sg8
I00
sg9
g6
sg10
S'diomedes.christodoulou@enron.com'
p142
sg12
g6
sg13
g6
sg14
g6
sg15
g6
sg16
g6
sg17
g6
sg18
g6
sg19
g31
sg20
g6
sg21
I6077885
sg22
g6
sg23
g6
sg24
g31
sg25
I950730
sg26
g6
sg27
g6
sg28
I5127155
ssS'BERBERIAN DAVID'
p143
(dp144
g3
g31
sg4
g6
sg5
g6
sg7
I11892
sg8
I00
sg9
g6
sg10
S'david.berberian@enron.com'
p145
sg12
g6
sg13
g6
sg14
g6
sg15
g6
sg16
g6
sg17
g6
sg18
g6
sg19
g31
sg20
g6
sg21
I2493616
sg22
g6
sg23
g6
sg24
F0.0
sg25
I869220
sg26
I216582
sg27
I228474
sg28
I1624396
ssS'DETMERING TIMOTHY J'
p146
(dp147
g3
g31
sg4
g6
sg5
I875307
sg7
I52255
sg8
I00
sg9
I-775241
sg10
S'timothy.detmering@enron.com'
p148
sg12
I415657
sg13
I-315068
sg14
g6
sg15
g6
sg16
g6
sg17
I1105
sg18
g6
sg19
g31
sg20
I425000
sg21
I2027865
sg22
g6
sg23
g6
sg24
F0.0
sg25
I315068
sg26
I210500
sg27
I1204583
sg28
I2027865
ssS'WAKEHAM JOHN'
p149
(dp150
g3
g31
sg4
g6
sg5
g6
sg7
I103773
sg8
I00
sg9
g6
sg10
g6
sg12
g6
sg13
g6
sg14
g6
sg15
g6
sg16
g6
sg17
g6
sg18
I109298
sg19
g31
sg20
g6
sg21
g6
sg22
g6
sg23
g6
sg24
g31
sg25
g6
sg26
g6
sg27
I213071
sg28
g6
ssS'POWERS WILLIAM'
p151
(dp152
g3
F0.0
sg4
I653
sg5
g6
sg7
g6
sg8
I00
sg9
I-17500
sg10
S'ken.powers@enron.com'
p153
sg12
g6
sg13
g6
sg14
I12
sg15
g6
sg16
I26
sg17
g6
sg18
I17500
sg19
F0.0
sg20
g6
sg21
g6
sg22
I0
sg23
I0
sg24
g31
sg25
g6
sg26
g6
sg27
g6
sg28
g6
ssS'GOLD JOSEPH'
p154
(dp155
g3
g31
sg4
g6
sg5
g6
sg7
g6
sg8
I00
sg9
g6
sg10
S'joe.gold@enron.com'
p156
sg12
I304805
sg13
g6
sg14
g6
sg15
g6
sg16
g6
sg17
I819288
sg18
g6
sg19
g31
sg20
I750000
sg21
I877611
sg22
g6
sg23
g6
sg24
F2.0
sg25
I441096
sg26
I272880
sg27
I2146973
sg28
I436515
ssS'BANNANTINE JAMES M'
p157
(dp158
g3
F0.0
sg4
I566
sg5
g6
sg7
I56301
sg8
I00
sg9
I-5104
sg10
S'james.bannantine@enron.com'
p159
sg12
g6
sg13
I-560222
sg14
I465
sg15
g6
sg16
I29
sg17
I864523
sg18
g6
sg19
F0.0
sg20
g6
sg21
I5243487
sg22
I39
sg23
I0
sg24
F0.0
sg25
I1757552
sg26
I477
sg27
I916197
sg28
I4046157
ssS'DUNCAN JOHN H'
p160
(dp161
g3
g31
sg4
g6
sg5
g6
sg7
g6
sg8
I00
sg9
I-25000
sg10
g6
sg12
g6
sg13
g6
sg14
g6
sg15
g6
sg16
g6
sg17
g6
sg18
I102492
sg19
g31
sg20
g6
sg21
I371750
sg22
g6
sg23
g6
sg24
F0.0
sg25
g6
sg26
g6
sg27
I77492
sg28
I371750
ssS'SHAPIRO RICHARD S'
p162
(dp163
g3
F0.0
sg4
I15149
sg5
g6
sg7
I137767
sg8
I00
sg9
g6
sg10
S'richard.shapiro@enron.com'
p164
sg12
g6
sg13
g6
sg14
I4527
sg15
g6
sg16
I1215
sg17
I705
sg18
g6
sg19
F0.0
sg20
I650000
sg21
I987001
sg22
I74
sg23
I65
sg24
F1.0
sg25
I379164
sg26
I269076
sg27
I1057548
sg28
I607837
ssS'SHERRIFF JOHN R'
p165
(dp166
g3
F0.0
sg4
I3187
sg5
g6
sg7
g6
sg8
I00
sg9
g6
sg10
S'john.sherriff@enron.com'
p167
sg12
I554422
sg13
g6
sg14
I2103
sg15
g6
sg16
I92
sg17
I1852186
sg18
g6
sg19
F0.0
sg20
I1500000
sg21
I3128982
sg22
I28
sg23
I23
sg24
F1.0
sg25
I1293424
sg26
I428780
sg27
I4335388
sg28
I1835558
ssS'SHELBY REX'
p168
(dp169
g3
F0.0
sg4
I225
sg5
g6
sg7
I22884
sg8
I01
sg9
I-4167
sg10
S'rex.shelby@enron.com'
p170
sg12
g6
sg13
g6
sg14
I91
sg15
g6
sg16
I39
sg17
I1573324
sg18
g6
sg19
F0.0
sg20
I200000
sg21
I2493616
sg22
I13
sg23
I14
sg24
F0.0
sg25
I869220
sg26
I211844
sg27
I2003885
sg28
I1624396
ssS'LEMAISTRE CHARLES'
p171
(dp172
g3
g31
sg4
g6
sg5
g6
sg7
g6
sg8
I00
sg9
I-25000
sg10
g6
sg12
g6
sg13
g6
sg14
g6
sg15
g6
sg16
g6
sg17
g6
sg18
I112492
sg19
g31
sg20
g6
sg21
I412878
sg22
g6
sg23
g6
sg24
F0.0
sg25
g6
sg26
g6
sg27
I87492
sg28
I412878
ssS'DEFFNER JOSEPH M'
p173
(dp174
g3
F0.0
sg4
I714
sg5
g6
sg7
I41626
sg8
I00
sg9
g6
sg10
S'joseph.deffner@enron.com'
p175
sg12
I335349
sg13
g6
sg14
I552
sg15
g6
sg16
I74
sg17
I25553
sg18
g6
sg19
F0.0
sg20
I600000
sg21
I159211
sg22
I115
sg23
I4
sg24
F7.0
sg25
I141833
sg26
I206121
sg27
I1208649
sg28
I17378
ssS'KISHKILL JOSEPH G'
p176
(dp177
g3
g31
sg4
g6
sg5
g6
sg7
I116335
sg8
I00
sg9
I-51042
sg10
S'joe.kishkill@enron.com'
p178
sg12
g6
sg13
g6
sg14
g6
sg15
g6
sg16
g6
sg17
I465357
sg18
g6
sg19
g31
sg20
g6
sg21
I1034346
sg22
g6
sg23
g6
sg24
F0.0
sg25
I1034346
sg26
I174246
sg27
I704896
sg28
g6
ssS'WHALLEY LAWRENCE G'
p179
(dp180
g3
F0.0
sg4
I6019
sg5
g6
sg7
I57838
sg8
I00
sg9
g6
sg10
S'greg.whalley@enron.com'
p181
sg12
I808346
sg13
g6
sg14
I3920
sg15
g6
sg16
I556
sg17
I301026
sg18
g6
sg19
F0.0
sg20
I3000000
sg21
I6079137
sg22
I186
sg23
I24
sg24
F0.0
sg25
I2796177
sg26
I510364
sg27
I4677574
sg28
I3282960
ssS'PIRO JIM'
p182
(dp183
g3
F0.0
sg4
I58
sg5
g6
sg7
g6
sg8
I00
sg9
g6
sg10
S'jim.piro@enron.com'
p184
sg12
g6
sg13
g6
sg14
I3
sg15
g6
sg16
I16
sg17
g6
sg18
g6
sg19
F0.0
sg20
g6
sg21
I47304
sg22
I0
sg23
I1
sg24
g31
sg25
I47304
sg26
g6
sg27
g6
sg28
g6
ssS'MCCONNELL MICHAEL S'
p185
(dp186
g3
F0.0
sg4
I3329
sg5
g6
sg7
I81364
sg8
I00
sg9
g6
sg10
S'mike.mcconnell@enron.com'
p187
sg12
I554422
sg13
g6
sg14
I2189
sg15
g6
sg16
I2742
sg17
I540
sg18
g6
sg19
F0.0
sg20
I1100000
sg21
I3101279
sg22
I92
sg23
I194
sg24
F0.0
sg25
I1478269
sg26
I365038
sg27
I2101364
sg28
I1623010
ssS'DELAINEY DAVID W'
p188
(dp189
g3
F0.0
sg4
I3093
sg5
g6
sg7
I86174
sg8
I01
sg9
g6
sg10
S'david.delainey@enron.com'
p190
sg12
I1294981
sg13
g6
sg14
I2097
sg15
g6
sg16
I3069
sg17
I1661
sg18
g6
sg19
F0.0
sg20
I3000000
sg21
I3614261
sg22
I66
sg23
I609
sg24
F1.0
sg25
I1323148
sg26
I365163
sg27
I4747979
sg28
I2291113
ssS'SULLIVAN-SHAKLOVITZ COLLEEN'
p191
(dp192
g3
g31
sg4
g6
sg5
I181993
sg7
g6
sg8
I00
sg9
g6
sg10
g6
sg12
I554422
sg13
g6
sg14
g6
sg15
g6
sg16
g6
sg17
I162
sg18
g6
sg19
g31
sg20
I100000
sg21
I1362375
sg22
g6
sg23
g6
sg24
F0.0
sg25
g6
sg26
I162779
sg27
I999356
sg28
I1362375
ssS'WROBEL BRUCE'
p193
(dp194
g3
g31
sg4
g6
sg5
g6
sg7
g6
sg8
I00
sg9
g6
sg10
g6
sg12
g6
sg13
g6
sg14
g6
sg15
g6
sg16
g6
sg17
g6
sg18
g6
sg19
g31
sg20
g6
sg21
I139130
sg22
g6
sg23
g6
sg24
g31
sg25
g6
sg26
g6
sg27
g6
sg28
I139130
ssS'LINDHOLM TOD A'
p195
(dp196
g3
g31
sg4
g6
sg5
I204075
sg7
I57727
sg8
I00
sg9
g6
sg10
S'tod.lindholm@enron.com'
p197
sg12
I175000
sg13
g6
sg14
g6
sg15
g6
sg16
g6
sg17
I2630
sg18
g6
sg19
g31
sg20
I200000
sg21
I3064208
sg22
g6
sg23
g6
sg24
F0.0
sg25
I514847
sg26
I236457
sg27
I875889
sg28
I2549361
ssS'MEYER JEROME J'
p198
(dp199
g3
g31
sg4
g6
sg5
g6
sg7
I2151
sg8
I00
sg9
I-38346
sg10
g6
sg12
g6
sg13
g6
sg14
g6
sg15
g6
sg16
g6
sg17
g6
sg18
I38346
sg19
g31
sg20
g6
sg21
g6
sg22
g6
sg23
g6
sg24
g31
sg25
g6
sg26
g6
sg27
I2151
sg28
g6
ssS'LAY KENNETH L'
p200
(dp201
g3
F0.0
sg4
I4273
sg5
I202911
sg7
I99832
sg8
I01
sg9
I-300000
sg10
S'kenneth.lay@enron.com'
p202
sg12
I3600000
sg13
g6
sg14
I2411
sg15
I81525000
sg16
I36
sg17
I10359729
sg18
g6
sg19
F0.0
sg20
I7000000
sg21
I49110078
sg22
I123
sg23
I16
sg24
F2.0
sg25
I14761694
sg26
I1072321
sg27
I103559793
sg28
I34348384
ssS'BUTTS ROBERT H'
p203
(dp204
g3
g31
sg4
g6
sg5
g6
sg7
I9410
sg8
I00
sg9
I-75000
sg10
S'bob.butts@enron.com'
p205
sg12
I175000
sg13
g6
sg14
g6
sg15
g6
sg16
g6
sg17
I150656
sg18
g6
sg19
g31
sg20
I750000
sg21
I417619
sg22
g6
sg23
g6
sg24
F3.0
sg25
I417619
sg26
I261516
sg27
I1271582
sg28
g6
ssS'OLSON CINDY K'
p206
(dp207
g3
F0.0
sg4
I1184
sg5
I77716
sg7
I63791
sg8
I00
sg9
g6
sg10
S'cindy.olson@enron.com'
p208
sg12
I100000
sg13
g6
sg14
I856
sg15
g6
sg16
I52
sg17
I972
sg18
g6
sg19
F0.0
sg20
I750000
sg21
I2606763
sg22
I20
sg23
I15
sg24
F0.0
sg25
I969729
sg26
I329078
sg27
I1321557
sg28
I1637034
ssS'MCDONALD REBECCA'
p209
(dp210
g3
F0.0
sg4
I894
sg5
g6
sg7
g6
sg8
I00
sg9
g6
sg10
S'rebecca.mcdonald@enron.com'
p211
sg12
g6
sg13
g6
sg14
I720
sg15
g6
sg16
I13
sg17
g6
sg18
g6
sg19
F0.0
sg20
g6
sg21
I1691366
sg22
I54
sg23
I1
sg24
g31
sg25
I934065
sg26
g6
sg27
g6
sg28
I757301
ssS'CUMBERLAND MICHAEL S'
p212
(dp213
g3
g31
sg4
g6
sg5
g6
sg7
I22344
sg8
I00
sg9
g6
sg10
g6
sg12
I275000
sg13
g6
sg14
g6
sg15
g6
sg16
g6
sg17
I713
sg18
g6
sg19
g31
sg20
I325000
sg21
I207940
sg22
g6
sg23
g6
sg24
F3.0
sg25
I207940
sg26
I184899
sg27
I807956
sg28
g6
ssS'GAHN ROBERT S'
p214
(dp215
g3
g31
sg4
g6
sg5
I73122
sg7
I50080
sg8
I00
sg9
I-1042
sg10
g6
sg12
g6
sg13
g6
sg14
g6
sg15
g6
sg16
g6
sg17
I76547
sg18
g6
sg19
g31
sg20
I509870
sg21
I318607
sg22
g6
sg23
g6
sg24
F2.0
sg25
I235370
sg26
I192008
sg27
I900585
sg28
I83237
ssS'BADUM JAMES P'
p216
(dp217
g3
g31
sg4
g6
sg5
I178980
sg7
I3486
sg8
I00
sg9
g6
sg10
g6
sg12
g6
sg13
g6
sg14
g6
sg15
g6
sg16
g6
sg17
g6
sg18
g6
sg19
g31
sg20
g6
sg21
I257817
sg22
g6
sg23
g6
sg24
F0.0
sg25
g6
sg26
g6
sg27
I182466
sg28
I257817
ssS'HERMANN ROBERT J'
p218
(dp219
g3
g31
sg4
g6
sg5
g6
sg7
I48357
sg8
I00
sg9
I-280000
sg10
S'robert.hermann@enron.com'
p220
sg12
I150000
sg13
g6
sg14
g6
sg15
g6
sg16
g6
sg17
I416441
sg18
g6
sg19
g31
sg20
I700000
sg21
I668132
sg22
g6
sg23
g6
sg24
F1.0
sg25
I480632
sg26
I262663
sg27
I1297461
sg28
I187500
ssS'FALLON JAMES B'
p221
(dp222
g3
F0.0
sg4
I1755
sg5
g6
sg7
I95924
sg8
I00
sg9
g6
sg10
S'jim.fallon@enron.com'
p223
sg12
I374347
sg13
g6
sg14
I1604
sg15
g6
sg16
I75
sg17
I401481
sg18
g6
sg19
F0.0
sg20
I2500000
sg21
I2332399
sg22
I42
sg23
I37
sg24
F1.0
sg25
I1392142
sg26
I304588
sg27
I3676340
sg28
I940257
ssS'GATHMANN WILLIAM D'
p224
(dp225
g3
g31
sg4
g6
sg5
g6
sg7
g6
sg8
I00
sg9
g6
sg10
g6
sg12
g6
sg13
I-72419
sg14
g6
sg15
g6
sg16
g6
sg17
g6
sg18
g6
sg19
g31
sg20
g6
sg21
I1945360
sg22
g6
sg23
g6
sg24
g31
sg25
I264013
sg26
g6
sg27
g6
sg28
I1753766
ssS'HORTON STANLEY C'
p226
(dp227
g3
F0.0
sg4
I2350
sg5
I3131860
sg7
g6
sg8
I00
sg9
g6
sg10
S'stanley.horton@enron.com'
p228
sg12
g6
sg13
g6
sg14
I1074
sg15
g6
sg16
I1073
sg17
g6
sg18
g6
sg19
F0.0
sg20
g6
sg21
I7256648
sg22
I44
sg23
I15
sg24
F0.0
sg25
I2046079
sg26
g6
sg27
I3131860
sg28
I5210569
ssS'BOWEN JR RAYMOND M'
p229
(dp230
g3
F0.0
sg4
I1858
sg5
g6
sg7
I65907
sg8
I01
sg9
I-833
sg10
S'raymond.bowen@enron.com'
p231
sg12
I974293
sg13
g6
sg14
I1593
sg15
g6
sg16
I27
sg17
I1621
sg18
g6
sg19
F0.0
sg20
I1350000
sg21
I252055
sg22
I140
sg23
I15
sg24
F10.0
sg25
I252055
sg26
I278601
sg27
I2669589
sg28
g6
ssS'GILLIS JOHN'
p232
(dp233
g3
g31
sg4
g6
sg5
g6
sg7
g6
sg8
I00
sg9
g6
sg10
g6
sg12
g6
sg13
g6
sg14
g6
sg15
g6
sg16
g6
sg17
g6
sg18
g6
sg19
g31
sg20
g6
sg21
I85641
sg22
g6
sg23
g6
sg24
g31
sg25
I75838
sg26
g6
sg27
g6
sg28
I9803
ssS'FASTOW ANDREW S'
p234
(dp235
g3
g31
sg4
g6
sg5
g6
sg7
I55921
sg8
I01
sg9
I-1386055
sg10
S'andrew.fastow@enron.com'
p236
sg12
I1736055
sg13
g6
sg14
g6
sg15
g6
sg16
g6
sg17
I277464
sg18
g6
sg19
g31
sg20
I1300000
sg21
I1794412
sg22
g6
sg23
g6
sg24
F1.0
sg25
I1794412
sg26
I440698
sg27
I2424083
sg28
g6
ssS'FITZGERALD JAY L'
p237
(dp238
g3
F0.0
sg4
I936
sg5
g6
sg7
I23870
sg8
I00
sg9
g6
sg10
S'jay.fitzgerald@enron.com'
p239
sg12
I556416
sg13
g6
sg14
I723
sg15
g6
sg16
I16
sg17
I285414
sg18
g6
sg19
F0.0
sg20
I350000
sg21
I1621236
sg22
I1
sg23
I8
sg24
F0.0
sg25
I956775
sg26
I199157
sg27
I1414857
sg28
I664461
ssS'MORAN MICHAEL P'
p240
(dp241
g3
F0.0
sg4
I672
sg5
g6
sg7
g6
sg8
I00
sg9
g6
sg10
S'michael.moran@enron.com'
p242
sg12
g6
sg13
g6
sg14
I127
sg15
g6
sg16
I19
sg17
g6
sg18
g6
sg19
F0.0
sg20
g6
sg21
I221141
sg22
I0
sg23
I0
sg24
g31
sg25
I161602
sg26
g6
sg27
g6
sg28
I59539
ssS'REDMOND BRIAN L'
p243
(dp244
g3
F0.0
sg4
I1671
sg5
g6
sg7
I14689
sg8
I00
sg9
g6
sg10
S'brian.redmond@enron.com'
p245
sg12
g6
sg13
g6
sg14
I1063
sg15
g6
sg16
I221
sg17
g6
sg18
g6
sg19
F0.0
sg20
g6
sg21
I7890324
sg22
I204
sg23
I49
sg24
F0.0
sg25
I381285
sg26
I96840
sg27
I111529
sg28
I7509039
ssS'BAZELIDES PHILIP J'
p246
(dp247
g3
g31
sg4
g6
sg5
I684694
sg7
g6
sg8
I00
sg9
g6
sg10
g6
sg12
I93750
sg13
g6
sg14
g6
sg15
g6
sg16
g6
sg17
I874
sg18
g6
sg19
g31
sg20
g6
sg21
I1599641
sg22
g6
sg23
g6
sg24
F0.0
sg25
g6
sg26
I80818
sg27
I860136
sg28
I1599641
ssS'BELDEN TIMOTHY N'
p248
(dp249
g3
F0.0
sg4
I7991
sg5
I2144013
sg7
I17355
sg8
I01
sg9
I-2334434
sg10
S'tim.belden@enron.com'
p250
sg12
g6
sg13
g6
sg14
I5521
sg15
g6
sg16
I484
sg17
I210698
sg18
g6
sg19
F0.0
sg20
I5249999
sg21
I1110705
sg22
I228
sg23
I108
sg24
F4.0
sg25
I157569
sg26
I213999
sg27
I5501630
sg28
I953136
ssS'DIMICHELE RICHARD G'
p251
(dp252
g3
g31
sg4
g6
sg5
g6
sg7
I35812
sg8
I00
sg9
g6
sg10
S'richard.dimichele@enron.com'
p253
sg12
I694862
sg13
g6
sg14
g6
sg15
g6
sg16
g6
sg17
I374689
sg18
g6
sg19
g31
sg20
I1000000
sg21
I8317782
sg22
g6
sg23
g6
sg24
F0.0
sg25
I126027
sg26
I262788
sg27
I2368151
sg28
I8191755
ssS'DURAN WILLIAM D'
p254
(dp255
g3
F0.0
sg4
I904
sg5
g6
sg7
I25785
sg8
I00
sg9
g6
sg10
S'w.duran@enron.com'
p256
sg12
I1105218
sg13
g6
sg14
I599
sg15
g6
sg16
I12
sg17
I1568
sg18
g6
sg19
F0.0
sg20
I750000
sg21
I1640910
sg22
I106
sg23
I3
sg24
F1.0
sg25
I189041
sg26
I210692
sg27
I2093263
sg28
I1451869
ssS'THORN TERENCE H'
p257
(dp258
g3
F0.0
sg4
I266
sg5
I16586
sg7
I46145
sg8
I00
sg9
g6
sg10
S'terence.thorn@enron.com'
p259
sg12
I200000
sg13
g6
sg14
I73
sg15
g6
sg16
I41
sg17
I426629
sg18
g6
sg19
F0.0
sg20
g6
sg21
I4817796
sg22
I0
sg23
I0
sg24
F0.0
sg25
I365320
sg26
I222093
sg27
I911453
sg28
I4452476
ssS'FOY JOE'
p260
(dp261
g3
F0.0
sg4
I57
sg5
I181755
sg7
g6
sg8
I00
sg9
g6
sg10
S'tracy.foy@enron.com'
p262
sg12
g6
sg13
g6
sg14
I2
sg15
g6
sg16
I13
sg17
g6
sg18
g6
sg19
F0.0
sg20
g6
sg21
I343434
sg22
I0
sg23
I0
sg24
F0.0
sg25
g6
sg26
g6
sg27
I181755
sg28
I343434
ssS'CALGER CHRISTOPHER F'
p263
(dp264
g3
F0.0
sg4
I2598
sg5
g6
sg7
I35818
sg8
I01
sg9
I-262500
sg10
S'christopher.calger@enron.com'
p265
sg12
I375304
sg13
g6
sg14
I2188
sg15
g6
sg16
I144
sg17
I486
sg18
g6
sg19
F0.0
sg20
I1250000
sg21
I126027
sg22
I199
sg23
I25
sg24
F13.0
sg25
I126027
sg26
I240189
sg27
I1639297
sg28
g6
ssS'RICE KENNETH D'
p266
(dp267
g3
F0.0
sg4
I905
sg5
g6
sg7
I46950
sg8
I01
sg9
I-3504386
sg10
S'ken.rice@enron.com'
p268
sg12
I1617011
sg13
g6
sg14
I864
sg15
g6
sg16
I18
sg17
I174839
sg18
g6
sg19
F0.0
sg20
I1750000
sg21
I22542539
sg22
I42
sg23
I4
sg24
F0.0
sg25
I2748364
sg26
I420636
sg27
I505050
sg28
I19794175
ssS'KAMINSKI WINCENTY J'
p269
(dp270
g3
F0.0
sg4
I4607
sg5
g6
sg7
I83585
sg8
I00
sg9
g6
sg10
S'vince.kaminski@enron.com'
p271
sg12
I323466
sg13
g6
sg14
I583
sg15
g6
sg16
I14368
sg17
I4669
sg18
g6
sg19
F0.0
sg20
I400000
sg21
I976037
sg22
I41
sg23
I171
sg24
F1.0
sg25
I126027
sg26
I275101
sg27
I1086821
sg28
I850010
ssS'COX DAVID'
p272
(dp273
g3
F0.0
sg4
I102
sg5
g6
sg7
I27861
sg8
I00
sg9
I-41250
sg10
S'chip.cox@enron.com'
p274
sg12
g6
sg13
g6
sg14
I71
sg15
g6
sg16
I33
sg17
I494
sg18
g6
sg19
F0.0
sg20
I800000
sg21
I495633
sg22
I0
sg23
I4
sg24
F2.0
sg25
I378082
sg26
I314288
sg27
I1101393
sg28
I117551
ssS'OVERDYKE JR JERE C'
p275
(dp276
g3
g31
sg4
g6
sg5
g6
sg7
I18834
sg8
I00
sg9
g6
sg10
S'jere.overdyke@enron.com'
p277
sg12
I135836
sg13
g6
sg14
g6
sg15
g6
sg16
g6
sg17
I176
sg18
g6
sg19
g31
sg20
g6
sg21
I7307594
sg22
g6
sg23
g6
sg24
F0.0
sg25
I2041016
sg26
I94941
sg27
I249787
sg28
I5266578
ssS'PEREIRA PAULO V. FERRAZ'
p278
(dp279
g3
g31
sg4
g6
sg5
g6
sg7
I27942
sg8
I00
sg9
I-101250
sg10
g6
sg12
g6
sg13
g6
sg14
g6
sg15
g6
sg16
g6
sg17
g6
sg18
I101250
sg19
g31
sg20
g6
sg21
g6
sg22
g6
sg23
g6
sg24
g31
sg25
g6
sg26
g6
sg27
I27942
sg28
g6
ssS'STABLER FRANK'
p280
(dp281
g3
g31
sg4
g6
sg5
g6
sg7
I16514
sg8
I00
sg9
g6
sg10
S'frank.stabler@enron.com'
p282
sg12
g6
sg13
g6
sg14
g6
sg15
g6
sg16
g6
sg17
I356071
sg18
g6
sg19
g31
sg20
I500000
sg21
I511734
sg22
g6
sg23
g6
sg24
F2.0
sg25
I511734
sg26
I239502
sg27
I1112087
sg28
g6
ssS'SKILLING JEFFREY K'
p283
(dp284
g3
F0.0
sg4
I3627
sg5
g6
sg7
I29336
sg8
I01
sg9
g6
sg10
S'jeff.skilling@enron.com'
p285
sg12
I1920000
sg13
g6
sg14
I2042
sg15
g6
sg16
I108
sg17
I22122
sg18
g6
sg19
F0.0
sg20
I5600000
sg21
I26093672
sg22
I88
sg23
I30
sg24
F0.0
sg25
I6843672
sg26
I1111258
sg27
I8682716
sg28
I19250000
ssS'BLAKE JR. NORMAN P'
p286
(dp287
g3
g31
sg4
g6
sg5
g6
sg7
I1279
sg8
I00
sg9
I-113784
sg10
g6
sg12
g6
sg13
g6
sg14
g6
sg15
g6
sg16
g6
sg17
g6
sg18
I113784
sg19
g31
sg20
g6
sg21
g6
sg22
g6
sg23
g6
sg24
g31
sg25
g6
sg26
g6
sg27
I1279
sg28
g6
ssS'SHERRICK JEFFREY B'
p288
(dp289
g3
F0.0
sg4
I613
sg5
g6
sg7
g6
sg8
I00
sg9
g6
sg10
S'jeffrey.sherrick@enron.com'
p290
sg12
g6
sg13
g6
sg14
I583
sg15
g6
sg16
I25
sg17
g6
sg18
g6
sg19
F0.0
sg20
g6
sg21
I1832468
sg22
I39
sg23
I18
sg24
g31
sg25
I405999
sg26
g6
sg27
g6
sg28
I1426469
ssS'PRENTICE JAMES'
p291
(dp292
g3
g31
sg4
g6
sg5
I564348
sg7
g6
sg8
I00
sg9
g6
sg10
S'james.prentice@enron.com'
p293
sg12
g6
sg13
g6
sg14
g6
sg15
g6
sg16
g6
sg17
g6
sg18
g6
sg19
g31
sg20
g6
sg21
I1095040
sg22
g6
sg23
g6
sg24
F0.0
sg25
I208809
sg26
g6
sg27
I564348
sg28
I886231
ssS'GRAY RODNEY'
p294
(dp295
g3
g31
sg4
g6
sg5
I93585
sg7
g6
sg8
I00
sg9
g6
sg10
g6
sg12
I365625
sg13
g6
sg14
g6
sg15
g6
sg16
g6
sg17
I680833
sg18
g6
sg19
g31
sg20
g6
sg21
g6
sg22
g6
sg23
g6
sg24
g31
sg25
g6
sg26
I6615
sg27
I1146658
sg28
g6
ssS'UMANOFF ADAM S'
p296
(dp297
g3
F0.0
sg4
I111
sg5
g6
sg7
I53122
sg8
I00
sg9
g6
sg10
S'adam.umanoff@enron.com'
p298
sg12
g6
sg13
g6
sg14
I41
sg15
g6
sg16
I18
sg17
g6
sg18
g6
sg19
F0.0
sg20
I788750
sg21
g6
sg22
I12
sg23
I0
sg24
g31
sg25
g6
sg26
I288589
sg27
I1130461
sg28
g6
ssS'KEAN STEVEN J'
p299
(dp300
g3
F0.0
sg4
I12754
sg5
g6
sg7
I41953
sg8
I00
sg9
g6
sg10
S'steven.kean@enron.com'
p301
sg12
I300000
sg13
g6
sg14
I3639
sg15
g6
sg16
I6759
sg17
I1231
sg18
g6
sg19
F0.0
sg20
I1000000
sg21
I6153642
sg22
I140
sg23
I387
sg24
F0.0
sg25
I4131594
sg26
I404338
sg27
I1747522
sg28
I2022048
ssS'FOWLER PEGGY'
p302
(dp303
g3
F0.0
sg4
I517
sg5
g6
sg7
g6
sg8
I00
sg9
g6
sg10
S'kulvinder.fowler@enron.com'
p304
sg12
g6
sg13
g6
sg14
I10
sg15
g6
sg16
I36
sg17
g6
sg18
g6
sg19
F0.0
sg20
g6
sg21
I1884748
sg22
I0
sg23
I0
sg24
g31
sg25
I560170
sg26
g6
sg27
g6
sg28
I1324578
ssS'WASAFF GEORGE'
p305
(dp306
g3
F0.0
sg4
I400
sg5
I831299
sg7
g6
sg8
I00
sg9
I-583325
sg10
S'george.wasaff@enron.com'
p307
sg12
I200000
sg13
g6
sg14
I337
sg15
g6
sg16
I30
sg17
I1425
sg18
g6
sg19
F0.0
sg20
I325000
sg21
I2056427
sg22
I22
sg23
I7
sg24
F0.0
sg25
I388167
sg26
I259996
sg27
I1034395
sg28
I1668260
ssS'WHITE JR THOMAS E'
p308
(dp309
g3
g31
sg4
g6
sg5
g6
sg7
I81353
sg8
I00
sg9
g6
sg10
S'thomas.white@enron.com'
p310
sg12
g6
sg13
g6
sg14
g6
sg15
g6
sg16
g6
sg17
I1085463
sg18
g6
sg19
g31
sg20
I450000
sg21
I15144123
sg22
g6
sg23
g6
sg24
F0.0
sg25
I13847074
sg26
I317543
sg27
I1934359
sg28
I1297049
ssS'ALLEN PHILLIP K'
p311
(dp312
g3
F0.0
sg4
I2902
sg5
I2869717
sg7
I13868
sg8
I00
sg9
I-3081055
sg10
S'phillip.allen@enron.com'
p313
sg12
I304805
sg13
I-126027
sg14
I1407
sg15
g6
sg16
I2195
sg17
I152
sg18
g6
sg19
F0.0
sg20
I4175000
sg21
I1729541
sg22
I47
sg23
I65
sg24
F2.0
sg25
I126027
sg26
I201955
sg27
I4484442
sg28
I1729541
ssS'SHARP VICTORIA T'
p314
(dp315
g3
F0.0
sg4
I3136
sg5
I187469
sg7
I116337
sg8
I00
sg9
g6
sg10
S'vicki.sharp@enron.com'
p316
sg12
I422158
sg13
g6
sg14
I2477
sg15
g6
sg16
I136
sg17
I2401
sg18
g6
sg19
F0.0
sg20
I600000
sg21
I494136
sg22
I24
sg23
I6
sg24
F3.0
sg25
I213063
sg26
I248146
sg27
I1576511
sg28
I281073
ssS'JAEDICKE ROBERT'
p317
(dp318
g3
g31
sg4
g6
sg5
g6
sg7
g6
sg8
I00
sg9
I-25000
sg10
g6
sg12
g6
sg13
I-44093
sg14
g6
sg15
g6
sg16
g6
sg17
g6
sg18
I108750
sg19
g31
sg20
g6
sg21
I431750
sg22
g6
sg23
g6
sg24
F0.0
sg25
I44093
sg26
g6
sg27
I83750
sg28
I431750
ssS'WINOKUR JR. HERBERT S'
p319
(dp320
g3
g31
sg4
g6
sg5
g6
sg7
I1413
sg8
I00
sg9
I-25000
sg10
g6
sg12
g6
sg13
g6
sg14
g6
sg15
g6
sg16
g6
sg17
g6
sg18
I108579
sg19
g31
sg20
g6
sg21
g6
sg22
g6
sg23
g6
sg24
g31
sg25
g6
sg26
g6
sg27
I84992
sg28
g6
ssS'BROWN MICHAEL'
p321
(dp322
g3
F0.0
sg4
I1486
sg5
g6
sg7
I49288
sg8
I00
sg9
g6
sg10
S'michael.brown@enron.com'
p323
sg12
g6
sg13
g6
sg14
I761
sg15
g6
sg16
I41
sg17
g6
sg18
g6
sg19
F0.0
sg20
g6
sg21
g6
sg22
I13
sg23
I1
sg24
g31
sg25
g6
sg26
g6
sg27
I49288
sg28
g6
ssS'MCCLELLAN GEORGE'
p324
(dp325
g3
F0.0
sg4
I1744
sg5
g6
sg7
I228763
sg8
I00
sg9
I-125000
sg10
S'george.mcclellan@enron.com'
p326
sg12
g6
sg13
g6
sg14
I1469
sg15
g6
sg16
I49
sg17
I51587
sg18
g6
sg19
F0.0
sg20
I900000
sg21
I947861
sg22
I52
sg23
I0
sg24
F1.0
sg25
I441096
sg26
I263413
sg27
I1318763
sg28
I506765
ssS'HUGHES JAMES A'
p327
(dp328
g3
F0.0
sg4
I719
sg5
g6
sg7
g6
sg8
I00
sg9
g6
sg10
S'james.hughes@enron.com'
p329
sg12
g6
sg13
g6
sg14
I589
sg15
g6
sg16
I34
sg17
g6
sg18
g6
sg19
F0.0
sg20
g6
sg21
I1118394
sg22
I35
sg23
I5
sg24
g31
sg25
I363428
sg26
g6
sg27
g6
sg28
I754966
ssS'REYNOLDS LAWRENCE'
p330
(dp331
g3
g31
sg4
g6
sg5
I51365
sg7
I8409
sg8
I00
sg9
I-200000
sg10
g6
sg12
I156250
sg13
I-140264
sg14
g6
sg15
g6
sg16
g6
sg17
I202052
sg18
g6
sg19
g31
sg20
I100000
sg21
I4221891
sg22
g6
sg23
g6
sg24
F0.0
sg25
I201483
sg26
I76399
sg27
I394475
sg28
I4160672
ssS'PICKERING MARK R'
p332
(dp333
g3
F0.0
sg4
I898
sg5
g6
sg7
I31653
sg8
I00
sg9
g6
sg10
S'mark.pickering@enron.com'
p334
sg12
g6
sg13
g6
sg14
I728
sg15
I400000
sg16
I67
sg17
g6
sg18
g6
sg19
F0.0
sg20
I300000
sg21
I28798
sg22
I7
sg23
I0
sg24
F48.0
sg25
g6
sg26
I655037
sg27
I1386690
sg28
I28798
ssS'BHATNAGAR SANJAY'
p335
(dp336
g3
F0.0
sg4
I523
sg5
g6
sg7
g6
sg8
I00
sg9
g6
sg10
S'sanjay.bhatnagar@enron.com'
p337
sg12
g6
sg13
I15456290
sg14
I463
sg15
g6
sg16
I29
sg17
I137864
sg18
I137864
sg19
F0.0
sg20
g6
sS'total_stock_value'
p338
S'NaN'
p339
sg22
I0
sg23
I1
sg24
g31
sg25
I-2604490
sg26
g6
sg27
I15456290
sg28
I2604490
ssS'CARTER REBECCA C'
p340
(dp341
g3
F0.0
sg4
I312
sg5
g6
sg7
g6
sg8
I00
sg9
I-159792
sg10
S'rebecca.carter@enron.com'
p342
sg12
I75000
sg13
I-307301
sg14
I196
sg15
g6
sg16
I15
sg17
I540
sg18
g6
sg19
F0.0
sg20
I300000
sg21
g6
sg22
I29
sg23
I7
sg24
g31
sg25
I307301
sg26
I261809
sg27
I477557
sg28
g6
ssS'BUCHANAN HAROLD G'
p343
(dp344
g3
F0.0
sg4
I1088
sg5
g6
sg7
I600
sg8
I00
sg9
g6
sg10
S'john.buchanan@enron.com'
p345
sg12
I304805
sg13
g6
sg14
I23
sg15
g6
sg16
I125
sg17
I1215
sg18
g6
sg19
F0.0
sg20
I500000
sg21
I1014505
sg22
I0
sg23
I0
sg24
F1.0
sg25
I189041
sg26
I248017
sg27
I1054637
sg28
I825464
ssS'YEAP SOON'
p346
(dp347
g3
g31
sg4
g6
sg5
g6
sg7
I55097
sg8
I00
sg9
g6
sg10
g6
sg12
g6
sg13
g6
sg14
g6
sg15
g6
sg16
g6
sg17
g6
sg18
g6
sg19
g31
sg20
g6
sg21
I192758
sg22
g6
sg23
g6
sg24
F0.0
sg25
g6
sg26
g6
sg27
I55097
sg28
I192758
ssS'MURRAY JULIA H'
p348
(dp349
g3
F0.0
sg4
I2192
sg5
g6
sg7
I57580
sg8
I00
sg9
g6
sg10
S'julia.murray@enron.com'
p350
sg12
I125000
sg13
g6
sg14
I395
sg15
g6
sg16
I45
sg17
I330
sg18
g6
sg19
F0.0
sg20
I400000
sg21
I597461
sg22
I11
sg23
I2
sg24
F1.0
sg25
I196983
sg26
I229284
sg27
I812194
sg28
I400478
ssS'GARLAND C KEVIN'
p351
(dp352
g3
F0.0
sg4
I209
sg5
g6
sg7
I48405
sg8
I00
sg9
g6
sg10
S'kevin.garland@enron.com'
p353
sg12
I375304
sg13
g6
sg14
I178
sg15
g6
sg16
I44
sg17
I60814
sg18
g6
sg19
F0.0
sg20
I850000
sg21
I896153
sg22
I10
sg23
I27
sg24
F1.0
sg25
I259907
sg26
I231946
sg27
I1566469
sg28
I636246
ssS'DODSON KEITH'
p354
(dp355
g3
F0.0
sg4
I176
sg5
g6
sg7
I28164
sg8
I00
sg9
g6
sg10
S'keith.dodson@enron.com'
p356
sg12
g6
sg13
g6
sg14
I114
sg15
g6
sg16
I14
sg17
I774
sg18
g6
sg19
F0.0
sg20
I70000
sg21
g6
sg22
I10
sg23
I3
sg24
g31
sg25
g6
sg26
I221003
sg27
I319941
sg28
g6
ssS'YEAGER F SCOTT'
p357
(dp358
g3
g31
sg4
g6
sg5
g6
sg7
I53947
sg8
I01
sg9
g6
sg10
S'scott.yeager@enron.com'
p359
sg12
g6
sg13
g6
sg14
g6
sg15
g6
sg16
g6
sg17
I147950
sg18
g6
sg19
g31
sg20
g6
sg21
I11884758
sg22
g6
sg23
g6
sg24
F0.0
sg25
I3576206
sg26
I158403
sg27
I360300
sg28
I8308552
ssS'HIRKO JOSEPH'
p360
(dp361
g3
g31
sg4
g6
sg5
I10259
sg7
I77978
sg8
I01
sg9
g6
sg10
S'joe.hirko@enron.com'
p362
sg12
g6
sg13
g6
sg14
g6
sg15
g6
sg16
g6
sg17
I2856
sg18
g6
sg19
g31
sg20
g6
sg21
I30766064
sg22
g6
sg23
g6
sg24
F0.0
sg25
g6
sg26
g6
sg27
I91093
sg28
I30766064
ssS'DIETRICH JANET R'
p363
(dp364
g3
F0.0
sg4
I2572
sg5
g6
sg7
I3475
sg8
I00
sg9
g6
sg10
S'janet.dietrich@enron.com'
p365
sg12
I556416
sg13
g6
sg14
I1902
sg15
g6
sg16
I63
sg17
I473
sg18
g6
sg19
F0.0
sg20
I600000
sg21
I1865087
sg22
I305
sg23
I14
sg24
F0.0
sg25
I315068
sg26
I250100
sg27
I1410464
sg28
I1550019
ssS'DERRICK JR. JAMES V'
p366
(dp367
g3
F0.0
sg4
I2181
sg5
g6
sg7
I51124
sg8
I00
sg9
I-1284000
sg10
S'james.derrick@enron.com'
p368
sg12
I484000
sg13
I-1787380
sg14
I1401
sg15
g6
sg16
I909
sg17
I7482
sg18
g6
sg19
F0.0
sg20
I800000
sg21
I8831913
sg22
I64
sg23
I20
sg24
F0.0
sg25
I1787380
sg26
I492375
sg27
I550981
sg28
I8831913
ssS'PAI LOU L'
p369
(dp370
g3
g31
sg4
g6
sg5
g6
sg7
I32047
sg8
I00
sg9
g6
sg10
S'lou.pai@enron.com'
p371
sg12
g6
sg13
g6
sg14
g6
sg15
g6
sg16
g6
sg17
I1829457
sg18
g6
sg19
g31
sg20
I1000000
sg21
I23817930
sg22
g6
sg23
g6
sg24
F0.0
sg25
I8453763
sg26
I261879
sg27
I3123383
sg28
I15364167
ssS'HAYSLETT RODERICK J'
p372
(dp373
g3
F0.0
sg4
I2649
sg5
g6
sg7
g6
sg8
I00
sg9
g6
sg10
S'rod.hayslett@enron.com'
p374
sg12
g6
sg13
g6
sg14
I571
sg15
g6
sg16
I1061
sg17
g6
sg18
g6
sg19
F0.0
sg20
g6
sg21
I346663
sg22
I35
sg23
I38
sg24
g31
sg25
I346663
sg26
g6
sg27
g6
sg28
g6
ssS'BAY FRANKLIN R'
p375
(dp376
g3
g31
sg4
g6
sg5
I260455
sg7
I129142
sg8
I00
sg9
I-201641
sg10
S'frank.bay@enron.com'
p377
sg12
g6
sg13
I-82782
sg14
g6
sg15
g6
sg16
g6
sg17
I69
sg18
g6
sg19
g31
sg20
I400000
sg21
I63014
sg22
g6
sg23
g6
sg24
F13.0
sg25
I145796
sg26
I239671
sg27
I827696
sg28
g6
ssS'MCCARTY DANNY J'
p378
(dp379
g3
F0.0
sg4
I1433
sg5
g6
sg7
g6
sg8
I00
sg9
g6
sg10
S'danny.mccarty@enron.com'
p380
sg12
g6
sg13
g6
sg14
I508
sg15
g6
sg16
I215
sg17
g6
sg18
g6
sg19
F0.0
sg20
g6
sg21
I758931
sg22
I25
sg23
I2
sg24
g31
sg25
I94556
sg26
g6
sg27
g6
sg28
I664375
ssS'FUGH JOHN L'
p381
(dp382
g3
g31
sg4
g6
sg5
I50591
sg7
g6
sg8
I00
sg9
g6
sg10
g6
sg12
g6
sg13
g6
sg14
g6
sg15
g6
sg16
g6
sg17
g6
sg18
g6
sg19
g31
sg20
g6
sg21
I176378
sg22
g6
sg23
g6
sg24
F0.0
sg25
g6
sg26
g6
sg27
I50591
sg28
I176378
ssS'SCRIMSHAW MATTHEW'
p383
(dp384
g3
g31
sg4
g6
sg5
g6
sg7
g6
sg8
I00
sg9
g6
sg10
S'matthew.scrimshaw@enron.com'
p385
sg12
g6
sg13
g6
sg14
g6
sg15
g6
sg16
g6
sg17
g6
sg18
g6
sg19
g31
sg20
g6
sg21
I759557
sg22
g6
sg23
g6
sg24
g31
sg25
g6
sg26
g6
sg27
g6
sg28
I759557
ssS'KOENIG MARK E'
p386
(dp387
g3
F0.0
sg4
I2374
sg5
g6
sg7
I127017
sg8
I01
sg9
g6
sg10
S'mark.koenig@enron.com'
p388
sg12
I300000
sg13
g6
sg14
I2271
sg15
g6
sg16
I61
sg17
I150458
sg18
g6
sg19
F0.0
sg20
I700000
sg21
I1920055
sg22
I53
sg23
I15
sg24
F0.0
sg25
I1248318
sg26
I309946
sg27
I1587421
sg28
I671737
ssS'SAVAGE FRANK'
p389
(dp390
g3
g31
sg4
g6
sg5
g6
sg7
g6
sg8
I00
sg9
I-121284
sg10
g6
sg12
g6
sg13
g6
sg14
g6
sg15
g6
sg16
g6
sg17
g6
sg18
I125034
sg19
g31
sg20
g6
sg21
g6
sg22
g6
sg23
g6
sg24
g31
sg25
g6
sg26
g6
sg27
I3750
sg28
g6
ssS'IZZO LAWRENCE L'
p391
(dp392
g3
F0.0
sg4
I496
sg5
g6
sg7
I28093
sg8
I00
sg9
g6
sg10
S'larry.izzo@enron.com'
p393
sg12
I312500
sg13
g6
sg14
I437
sg15
g6
sg16
I19
sg17
I1553729
sg18
g6
sg19
F0.0
sg20
g6
sg21
I5819980
sg22
I28
sg23
I5
sg24
F0.0
sg25
I3654808
sg26
I85274
sg27
I1979596
sg28
I2165172
ssS'TILNEY ELIZABETH A'
p394
(dp395
g3
F0.0
sg4
I460
sg5
g6
sg7
g6
sg8
I00
sg9
I-575000
sg10
S'elizabeth.tilney@enron.com'
p396
sg12
I275000
sg13
g6
sg14
I379
sg15
g6
sg16
I19
sg17
I152055
sg18
g6
sg19
F0.0
sg20
I300000
sg21
I1168042
sg22
I10
sg23
I11
sg24
F0.0
sg25
I576792
sg26
I247338
sg27
I399393
sg28
I591250
ssS'MARTIN AMANDA K'
p397
(dp398
g3
F0.0
sg4
I1522
sg5
I85430
sg7
I8211
sg8
I00
sg9
g6
sg10
S'a..martin@enron.com'
p399
sg12
I5145434
sg13
g6
sg14
I477
sg15
g6
sg16
I230
sg17
I2818454
sg18
g6
sg19
F0.0
sg20
g6
sg21
I2070306
sg22
I8
sg23
I0
sg24
F4.0
sg25
g6
sg26
I349487
sg27
I8407016
sg28
I2070306
ssS'BUY RICHARD B'
p400
(dp401
g3
F0.0
sg4
I3523
sg5
I649584
sg7
g6
sg8
I00
sg9
I-694862
sg10
S'rick.buy@enron.com'
p402
sg12
I769862
sg13
g6
sg14
I2333
sg15
g6
sg16
I1053
sg17
I400572
sg18
g6
sg19
F0.0
sg20
I900000
sg21
I3444470
sg22
I156
sg23
I71
sg24
F0.0
sg25
I901657
sg26
I330546
sg27
I2355702
sg28
I2542813
ssS'GRAMM WENDY L'
p403
(dp404
g3
g31
sg4
g6
sg5
g6
sg7
g6
sg8
I00
sg9
g6
sg10
g6
sg12
g6
sg13
g6
sg14
g6
sg15
g6
sg16
g6
sg17
g6
sg18
I119292
sg19
g31
sg20
g6
sg21
g6
sg22
g6
sg23
g6
sg24
g31
sg25
g6
sg26
g6
sg27
I119292
sg28
g6
ssS'CAUSEY RICHARD A'
p405
(dp406
g3
F0.0
sg4
I1892
sg5
g6
sg7
I30674
sg8
I01
sg9
I-235000
sg10
S'richard.causey@enron.com'
p407
sg12
I350000
sg13
g6
sg14
I1585
sg15
g6
sg16
I49
sg17
I307895
sg18
g6
sg19
F0.0
sg20
I1000000
sg21
I2502063
sg22
I58
sg23
I12
sg24
F0.0
sg25
I2502063
sg26
I415189
sg27
I1868758
sg28
g6
ssS'TAYLOR MITCHELL S'
p408
(dp409
g3
F0.0
sg4
I533
sg5
I227449
sg7
g6
sg8
I00
sg9
g6
sg10
S'mitchell.taylor@enron.com'
p410
sg12
g6
sg13
g6
sg14
I300
sg15
g6
sg16
I29
sg17
g6
sg18
g6
sg19
F0.0
sg20
I600000
sg21
I3745048
sg22
I0
sg23
I0
sg24
F0.0
sg25
I563798
sg26
I265214
sg27
I1092663
sg28
I3181250
ssS'DONAHUE JR JEFFREY M'
p411
(dp412
g3
F0.0
sg4
I865
sg5
g6
sg7
I96268
sg8
I00
sg9
I-300000
sg10
S'jeff.donahue@enron.com'
p413
sg12
g6
sg13
g6
sg14
I772
sg15
g6
sg16
I22
sg17
I891
sg18
g6
sg19
F0.0
sg20
I800000
sg21
I1080988
sg22
I188
sg23
I11
sg24
F0.0
sg25
I315068
sg26
I278601
sg27
I875760
sg28
I765920
ssS'GLISAN JR BEN F'
p414
(dp415
g3
F0.0
sg4
I873
sg5
g6
sg7
I125978
sg8
I01
sg9
g6
sg10
S'ben.glisan@enron.com'
p416
sg12
I71023
sg13
g6
sg14
I874
sg15
g6
sg16
I16
sg17
I200308
sg18
g6
sg19
F0.0
sg20
I600000
sg21
I778546
sg22
I52
sg23
I6
sg24
F1.0
sg25
I393818
sg26
I274975
sg27
I1272284
sg28
I384728
ss.